(dp1
S'Larry Benton'
p2
I5923
sS'John Krasinski'
p3
I445
sS'Joe Alaskey'
p4
I1279
sS'Dominique Cote'
p5
Fnan
sS'Mindy Kaling'
p6
I1321
sS'Aaron Spann'
p7
I9130
sS'Dom DeLuise'
p8
I2964
sS'Tony Eusoff'
p9
I51851
sS'Nick Swardson'
p10
I634
sS'Julia Brams'
p11
I14150
sS'Don Fullilove'
p12
I2008
sS'Jim Conroy'
p13
I5392
sS'Michael McShane'
p14
I2431
sS'Renee Taylor'
p15
I3287
sS'Alex D. Linz'
p16
I3531
sS'Jaishon Fisher'
p17
I23895
sS'Kaoru Kobayashi'
p18
I18999
sS'Jill Talley'
p19
I5859
sS'Julie Kavner'
p20
I1848
sS'Nate Torrence'
p21
I1356
sS'Nick Park'
p22
Fnan
sS'Jonathan Kydd'
p23
I711
sS'Werner Herzog'
p24
Fnan
sS'David Hyde Pierce'
p25
I2122
sS'Jack De Sena'
p26
I23050
sS'Matthew Henerson'
p27
I8905
sS'Fergal Reilly'
p28
I8159
sS'Ethan Smigel'
p29
I5760
sS'Matthew Henderson'
p30
I33958
sS'Marshall Efron'
p31
I3978
sS'Jessica DiCicco'
p32
I8202
sS'Matt Taylor'
p33
I5096
sS'Kristen Anderson-Lopez'
p34
Fnan
sS'Aaron Hendry'
p35
I9543
sS'James Earl Jones'
p36
I117
sS'Andrew Ableson'
p37
I4228
sS'Jonah Hill'
p38
I306
sS'Dakota Fanning'
p39
I339
sS'Will Vanderpuye'
p40
I1490
sS'Jarvis Cocker'
p41
I2203
sS'Jason Schwartzman'
p42
I1015
sS'Jean Martin'
p43
I30962
sS'Peter Bartlett'
p44
I10538
sS'Neil deGrasse Tyson'
p45
I30
sS'Jean Benguigui'
p46
I47354
sS'Jerry Seinfeld'
p47
I561
sS'Raymond Persi'
p48
I1887
sS'Charles Fleischer'
p49
I1410
sS'Macha Grenon'
p50
I42320
sS'Emil-Bastien Bouffard'
p51
I23260
sS'Pauly Shore'
p52
I14681
sS'Tempestt Bledsoe'
p53
I21631
sS'Jimmy Hayward'
p54
I20213
sS'Leon Morenzie'
p55
I31743
sS'Phil Harris'
p56
I793
sS'Samantha Mathis'
p57
I6238
sS'Peter Kay'
p58
I13999
sS'Wyatt Dean Hall'
p59
Fnan
sS'Todd Holland'
p60
I36116
sS'Anne Bancroft'
p61
I2737
sS'Alex Garfin'
p62
I11440
sS'Amy Heidemann'
p63
I5382
sS'Charlize Theron'
p64
I429
sS'Haven Hartman'
p65
I43997
sS'Wil Wheaton'
p66
I5133
sS'Theodore Finn Kayser'
p67
I11446
sS'Lorne Greene'
p68
I23205
sS'Jackie Titone'
p69
I24222
sS'James Barbour'
p70
I37845
sS'Jaime Camil'
p71
I2788
sS'John Siciliano'
p72
I18087
sS'Zach Galifianakis'
p73
I99
sS'Shiloh Jolie Pitt'
p74
I5137
sS'Anna Paquin'
p75
I615
sS'Elizabeth Pan'
p76
I5254
sS'Bill Nighy'
p77
I122
sS'Mar Mar'
p78
I11454
sS'Charlotte Emma Aitchison'
p79
I8165
sS'James Caan'
p80
I785
sS'Nick Haverson'
p81
I24489
sS'Paul Dooley'
p82
I1170
sS'Mike Myers'
p83
I31
sS'Tyra Banks'
p84
I7203
sS'Pierce Gagnon'
p85
I2535
sS'Mikey Kelley'
p86
I946
sS'Rob Coleman'
p87
Fnan
sS'Christopher Knights'
p88
I559
sS'Ned Beatty'
p89
I645
sS'Robert Clotworthy'
p90
I1024
sS'Sandra Bullock'
p91
I16
sS'Thomas Kretschmann'
p92
I518
sS'Bill Farmer'
p93
I48
sS'Dave Franco'
p94
I1290
sS'Casey Simpson'
p95
I2073
sS'John Cohen'
p96
Fnan
sS'Joseph Fiennes'
p97
I2966
sS'Olivia Williams'
p98
I945
sS'Tia Carrere'
p99
I2792
sS'Gary Trousdale'
p100
Fnan
sS'Emily Polydoros'
p101
I36957
sS'Aoi Teshima'
p102
I27765
sS'Sam Elliott'
p103
I1108
sS'Michael McKean'
p104
I3051
sS'Steve Irwin'
p105
I7123
sS'Mickie McGowan'
p106
I11
sS'Gino Montesinos'
p107
I18083
sS'Kirk Baily'
p108
I1754
sS'Humberto Velez'
p109
I38543
sS'Robert Loggia'
p110
I1298
sS'Darren Criss'
p111
I20500
sS'Johnny Depp'
p112
I6
sS'Frank Oz'
p113
I119
sS'Eddie Gossling'
p114
I23048
sS'Chris Paluszek'
p115
I5972
sS'David Krumholtz'
p116
I2303
sS'Al Roker'
p117
I1193
sS'Christina Milian'
p118
I3301
sS'Sean Schemmel'
p119
I1201
sS'Jay Leno'
p120
I4
sS'Emma Stone'
p121
I637
sS'Queen Latifah'
p122
I173
sS'Joseph Siravo'
p123
I4292
sS'James Daniel Wilson'
p124
I1189
sS'Randy Quaid'
p125
I1018
sS'Mandy Moore'
p126
I263
sS'Jennifer Love Hewitt'
p127
I2746
sS'Gene Hackman'
p128
I579
sS'Elsie Fisher'
p129
I1895
sS'Masasa Moyo'
p130
I4014
sS'Sara Egan'
p131
I10350
sS'Masam Holden'
p132
I40262
sS'Tom Selleck'
p133
I3674
sS'Mitchel Musso'
p134
I12714
sS'Johnny Knoxville'
p135
I1151
sS'Bill Shirley'
p136
I46120
sS'Benedict Cumberbatch'
p137
I178
sS'Stanley Tucci'
p138
I30
sS'Ken Mitchroney'
p139
I31741
sS'Jason Segel'
p140
I1295
sS'Elissa Knight'
p141
I2019
sS'Andy Richter'
p142
I809
sS'Jackie Gonneau'
p143
I572
sS'Xzibit'
p144
I4999
sS'Jennifer Lewis'
p145
I2832
sS'Peter De Seve'
p146
Fnan
sS'Rosa Fernandez'
p147
I16720
sS'Pax Jolie Pitt'
p148
I5139
sS'Max Burkholder'
p149
I31728
sS'Alison Lohman'
p150
I6791
sS'Roseanne'
p151
I14687
sS'David Lee'
p152
I21362
sS'Sheena Easton'
p153
I231
sS'Madison Desjarlais'
p154
I25411
sS'Izaak Smith'
p155
I25407
sS'Akihiro Miwa'
p156
I19006
sS'Debra Jo Rupp'
p157
I5234
sS'Ina Fichman'
p158
Fnan
sS'Kath Soucie'
p159
I371
sS'Dev Patel'
p160
I396
sS'Myriam Elda Arsenault'
p161
Fnan
sS'Michael Winslow'
p162
I5929
sS'Moroni Olsen'
p163
I14528
sS'Charlotte Gulezian'
p164
I3942
sS'Ming Tsai'
p165
I5141
sS'Michael Jeter'
p166
I1009
sS'Monhamed Fellag'
p167
I1569
sS'Eva Gabor'
p168
I23030
sS'Ileanna Bravos'
p169
I11434
sS'Philip Bulcock'
p170
I1310
sS'Liam Neeson'
p171
I15
sS'Mr. Lawrence'
p172
I6057
sS'Grant Shaud'
p173
I12513
sS'Robert Capron'
p174
I18648
sS'Jamie Alcroft'
p175
I37858
sS'Patton Oswalt'
p176
I3485
sS'Timi Prulhiere'
p177
I43492
sS'Kurt Russell'
p178
I164
sS'Jessalyn Gilsig'
p179
I13607
sS'Kendall Sanders'
p180
I22057
sS'Cole McKay'
p181
I12689
sS'Jonathan Taylor Thomas'
p182
I2205
sS'Gilbert Gottfried'
p183
I2424
sS'Geraldine Page'
p184
I19564
sS'Christopher Walken'
p185
I233
sS'Noah Luke'
p186
I2229
sS'Eden Vietro'
p187
I11453
sS'Avril Lavigne'
p188
I9172
sS'Edward Asner'
p189
I1722
sS'Sherri Shepherd'
p190
I2024
sS'D.F. Reynolds'
p191
I15429
sS'Megan Richie'
p192
I5753
sS'Clint Howard'
p193
I253
sS'Sting'
p194
I7438
sS'Ryan Devlin'
p195
I25399
sS'Keiko Takeshita'
p196
I20497
sS'Heidi Klum'
p197
I25222
sS'Ben Gleib'
p198
I2442
sS'Cheri Oteri'
p199
I1217
sS'Jim Wise'
p200
I4943
sS'Molly Quinn'
p201
I4376
sS'Matt Maiellaro'
p202
Fnan
sS'Jeff Fischer'
p203
I5429
sS'Emily Hahn'
p204
I1166
sS'Daniel Studi'
p205
I897
sS'David Hasselhoff'
p206
I82
sS'David Cross'
p207
I81
sS'Wayne Knight'
p208
I262
sS'Peter Siragusa'
p209
I1912
sS'Brenda Vaccaro'
p210
I29717
sS'Sarah Vowell'
p211
I317
sS'Lauren Bacall'
p212
I11683
sS'Thomas A. Chantler'
p213
I37121
sS'Derek Jacobi'
p214
I923
sS'Todd Haberkorn'
p215
I5013
sS'Leslie Zemeckis'
p216
I4090
sS'Adam Alexi-Malle'
p217
I4283
sS'Jennifer Furches'
p218
I32225
sS'Steve Coogan'
p219
I198
sS'Hattie Winston'
p220
I8067
sS'James Lipton'
p221
I7708
sS'Ronn Moss'
p222
I8628
sS'Kevin Smith'
p223
I2658
sS'Laura Marano'
p224
I2415
sS'Tsunehiko Kamijoe'
p225
I19002
sS'Philippe Derrez'
p226
I51263
sS'Brian George'
p227
I10921
sS'Nissa Alcorn'
p228
I31742
sS'Bonnie Hunt'
p229
I53
sS'Madge Sinclar'
p230
I1325
sS'Joshua Dallas'
p231
I1711
sS'Tom McGrath'
p232
Fnan
sS'Hafsia Herzi'
p233
I45662
sS'Thomas Sharkey'
p234
I3982
sS'Toshiyuki Morikawa'
p235
I49199
sS'Brendan Gleeson'
p236
I42
sS'Pat Musick'
p237
I8855
sS'Facundo '
p238
Fnan
sS'James McAvoy'
p239
I102
sS'Lea Michele'
p240
Fnan
sS'Caroline Sunshine'
p241
I25405
sS'Rex Everhart'
p242
I3216
sS'Lena Headey'
p243
I1823
sS'Juan Pope'
p244
I7500
sS'Al Nelson'
p245
Fnan
sS'Terry Jones'
p246
I29168
sS'Richard Dreyfuss'
p247
I720
sS'Cee Lo Green'
p248
Fnan
sS'Elisa Gabrielli'
p249
I4260
sS'Conchata Ferrell'
p250
I8113
sS'Jerome Ranft'
p251
I797
sS'Connor Matheus'
p252
I8711
sS'Elias Garza'
p253
I23262
sS'Aiden McGraw'
p254
I8161
sS'Kyle Hebert'
p255
I25848
sS'Robert Wagner'
p256
I2072
sS'Colleen Clinkenbeard'
p257
I29794
sS'Carolyn Lawrence'
p258
I11661
sS'Genesis Rodriguez'
p259
I2026
sS'John Kassir'
p260
I294
sS'Julianne Buescher'
p261
I6719
sS'Pete Postlethwaite'
p262
I465
sS'Maya Rudolph'
p263
I257
sS'Will Ferrell'
p264
I85
sS'Judith Barsi'
p265
I25710
sS'Ellen Burstyn'
p266
I1252
sS'Peter DeYoung'
p267
I18099
sS'Kevin Swierszcz'
p268
I44685
sS'Logan Kishi'
p269
I5750
sS'Hugo Guinness'
p270
I32226
sS'Anndi McAfee'
p271
I44442
sS'Francois Morel'
p272
I1896
sS'Whoopi Goldberg'
p273
I144
sS'Paul Cowan'
p274
Fnan
sS'M. Emmet Walsh'
p275
I952
sS'John Morris'
p276
Fnan
sS'Tessa Netting'
p277
I11470
sS'Euan Morton'
p278
I31069
sS'Byron Howard'
p279
Fnan
sS'Emily Watson'
p280
I1525
sS'Horatio Sanz'
p281
I2642
sS'Rooney Mara'
p282
I415
sS'Mason McNulty'
p283
I2075
sS'Carl Weathers'
p284
I1487
sS'Kevin Cahoon'
p285
I33956
sS'Jeff Pidgion'
p286
I4568
sS'Chris Pine'
p287
I201
sS'Raini Rodriguez'
p288
I9553
sS'Danielle Darrieux'
p289
I29982
sS'Andre Stojka'
p290
I15432
sS'James Edmund Godwin'
p291
I3970
sS"Dan O'Connor"
p292
I1339
sS'Sean Elmore'
p293
I9136
sS'Holland Broggie'
p294
I16724
sS'Beau Bridges'
p295
I6685
sS'Helen Fraser'
p296
I1496
sS'Melanie Bond'
p297
I1491
sS'Woody Harrelson'
p298
I82
sS'Catherine Cavadini'
p299
I16714
sS'Lucas Neff'
p300
I511
sS'Hynden Walch'
p301
I18315
sS'Debi Tinsley'
p302
I38496
sS'Bradly Pierce'
p303
I5281
sS'Peter Falk'
p304
I3617
sS'William Hickey'
p305
I6735
sS'Elaine A. Clark'
p306
I37122
sS'Jude Law'
p307
I75
sS'Maria Bamford'
p308
I45722
sS'Bruce Spence'
p309
I177
sS'Kate Higgins'
p310
I36966
sS'Michael Gambon'
p311
I51
sS'Oliver Kalkofe'
p312
I11817
sS'Mike Judge'
p313
Fnan
sS'Mark A. Sheppard'
p314
I51849
sS'Jean-Claude Donda'
p315
I2104
sS'Will Sasso'
p316
I7510
sS'Sharon Dugan'
p317
I21097
sS'Mona Marshall'
p318
I176
sS'David Cowgill'
p319
I662
sS'Fran Drescher'
p320
I1857
sS'Sage Ryan'
p321
I8906
sS'Caitlin Fein'
p322
I3898
sS'Bill Hader'
p323
I31
sS'James Cromwell'
p324
I132
sS'Bryan Cranston'
p325
I305
sS'Julianna Margulies'
p326
I5960
sS'Rowan Atkinson'
p327
I495
sS'Chris Carmack'
p328
I25777
sS'Steele Gagnon'
p329
I5136
sS'Yuri Lowenthal'
p330
Fnan
sS'Stacy Ferguson'
p331
I3307
sS'Christopher Campbell'
p332
I1573
sS'Willem Dafoe'
p333
I62
sS'Philana Mia'
p334
I4105
sS'Seth Green'
p335
I1114
sS'Maurice LaMarche'
p336
I1524
sS'Nadia Lewis'
p337
I27138
sS'Will Forte'
p338
I2825
sS'Lacey Chabert'
p339
I3197
sS'Snoop Dogg'
p340
I1567
sS'Harry Dean Stanton'
p341
I451
sS'Tyler James Williams'
p342
I27033
sS'Alex Wolff'
p343
I18146
sS'Channing Tatum'
p344
I112
sS'Meghan Thurmeier'
p345
I2440
sS'Paul Mazursky'
p346
I2304
sS'E. Thomas Ewing'
p347
Fnan
sS'Jim Belushi'
p348
I41882
sS'Juman Malouf'
p349
I32233
sS'Anders Holm'
p350
I3489
sS'Jean-Claude Van Damme'
p351
I351
sS'Chris Romano'
p352
Fnan
sS'Ken Jeong'
p353
I142
sS'Michael Beattie'
p354
I439
sS'Dave Goelz'
p355
I768
sS'Robin Williams'
p356
I44
sS'Carter Hastings'
p357
I2739
sS'Charlie Sexton'
p358
I31486
sS'Ishan Sharma'
p359
I23256
sS'Kaitlyn Dias'
p360
I2668
sS'Bruce A. Young'
p361
I1568
sS'Blanca Camacho'
p362
I3972
sS'Maite Perroni'
p363
Fnan
sS'Dominique Louis'
p364
Fnan
sS'Dana Delany'
p365
I11794
sS'Alistair Abell'
p366
I20104
sS'Emily Nordwind'
p367
I7483
sS'R. Lee Ermey'
p368
I316
sS'Olivier Gourmet'
p369
I46988
sS'Eli Marienthal'
p370
I10498
sS'Robin Atkin Downes'
p371
I722
sS'Jason Scott Lee'
p372
I3081
sS'Clancy Brown'
p373
I788
sS'Nicolette Gani'
p374
I16688
sS'Tom Fahn'
p375
I3960
sS'Albert Finney'
p376
I568
sS'Dolly Parton'
p377
I5140
sS'Barry Humphries'
p378
I954
sS'Charles Jarman'
p379
I5614
sS'Hunter Kitagawa'
p380
I37856
sS'Katie Silverman'
p381
I2071
sS'Maire Ni Chonghaile'
p382
I36954
sS'Ava Leslie'
p383
I11472
sS'Breanna Brooks'
p384
I10533
sS'Jeffrey Garcia'
p385
I3297
sS'Betsy Hammer'
p386
I37847
sS'Jeff Bridges'
p387
I634
sS'Paul Newman'
p388
I189
sS'Lauren Graham'
p389
I2748
sS'Melissa Sturm'
p390
I2262
sS'Leland Grossman'
p391
I2228
sS'Lu Horta'
p392
I48360
sS'Eddie Collins'
p393
I14521
sS'Michael Cera'
p394
I516
sS'Goran Visnjic'
p395
I2751
sS'Vincent Tong'
p396
I18690
sS'David Kaye'
p397
I1204
sS'Jeff Dunham'
p398
I12158
sS'Wallace Shawn'
p399
I241
sS'Aoi Miyazaki'
p400
I2280
sS'Wendee Lee'
p401
I52487
sS'Yeardley Smith'
p402
I2123
sS'Steve Apostolina'
p403
I2738
sS'Jason Statham'
p404
I192
sS'Dustin Hoffman'
p405
I80
sS'Aaron Michael Drozin'
p406
I10505
sS'Terry Gilliam'
p407
I10477
sS'Jacquie Barnbrook'
p408
I3780
sS'Regina King'
p409
I1575
sS'John Lavelle'
p410
I1680
sS'Julia Louis-Dreyfus'
p411
I3483
sS'Laurel Carini'
p412
I5763
sS'Barry Corbin'
p413
I6045
sS'Matthew D. Simmons'
p414
I2447
sS'Michael Chinyamurindi'
p415
I12530
sS'Jennifer Beals'
p416
I5247
sS'Phil Proctor'
p417
I70
sS'Wilmer Valderrama'
p418
I19039
sS'Julio Bonet'
p419
I14146
sS'Sandra Echeverria'
p420
I2345
sS'Julia Sawalha'
p421
I10918
sS'James Hong'
p422
I416
sS'Jason Bateman'
p423
I529
sS'George Clooney'
p424
I56
sS'Ben Gregory'
p425
I2121
sS'Raugi Yu'
p426
I25422
sS'Gary Oldman'
p427
I5
sS'Margaret Cho'
p428
I7188
sS'Nathan Fillion'
p429
I520
sS'Rob Corddry'
p430
I1727
sS'Nana Mizuki'
p431
Fnan
sS'Bunta Sugawara'
p432
I1137
sS'David Hobbs'
p433
I4431
sS'Michael Dobson'
p434
I20105
sS'Paul Rugg'
p435
I31744
sS'Anna Faris'
p436
I683
sS'Anthony Edwards'
p437
I2309
sS'Michael Clarke Duncan'
p438
I189
sS"J. Pat O'Malley"
p439
I18118
sS'Peter Dinklage'
p440
I310
sS'Lori Alan'
p441
I107
sS'Jasper Johannes Andrews'
p442
I10597
sS'Beth Behrs'
p443
I3073
sS'Rob Riggle'
p444
I612
sS'Denise Blasor'
p445
I16693
sS'Janet Waldo'
p446
I43994
sS'Trey Bumpass'
p447
I23258
sS'Cinda Adams'
p448
I41812
sS'Matt Wolf'
p449
I33954
sS'Cody Cameron'
p450
I632
sS'Jerry Kernion'
p451
I10539
sS'Julia Roberts'
p452
I40
sS'Renaud Marx'
p453
I51256
sS'Jay O. Sanders'
p454
I1242
sS'Juan Pacheo'
p455
I21623
sS'Lilah Tartakovsky'
p456
I5767
sS'Florence Stanley'
p457
I14505
sS'Danny McBride'
p458
I508
sS'Sharon Stone'
p459
I168
sS'Bob Odenkirk'
p460
I14944
sS'Judd Nelson'
p461
I876
sS'JoAnne Worley'
p462
I6075
sS'Bruno Bichir'
p463
Fnan
sS'Dan Fogler'
p464
I1473
sS'Gracinha Leporace'
p465
I5393
sS'Dee Bradley Baker'
p466
I879
sS'Archie Hahn'
p467
I3628
sS'Matt Jones'
p468
I16798
sS'Jeff Pidgeon'
p469
I922
sS'Creagen Dow'
p470
I31745
sS'Donovan Patton'
p471
I3272
sS'Miguel Ferrer'
p472
I612
sS'Quvenzhan?? Wallis'
p473
I746
sS'Steve Schirripa'
p474
I15349
sS'David Z. Price'
p475
I25424
sS'Liz Bolton'
p476
I21640
sS'Rik Mayall'
p477
I2082
sS'Fionnula Flanagan'
p478
I2126
sS'Kylie Minogue'
p479
I3883
sS'Shaun Gerardo'
p480
I36960
sS'Kelly Lafferty'
p481
I5967
sS'John Malkovich'
p482
I312
sS'Leila Birch'
p483
I10594
sS'Adam West'
p484
I5624
sS'Sundra Oakley'
p485
I3943
sS'Leah Latham'
p486
I829
sS'Toshio Furukawa'
p487
I51814
sS'Laila Berzins'
p488
Fnan
sS'Emma Tate'
p489
I10216
sS'Stuart Buchanan'
p490
I14530
sS'Carlos Espejel'
p491
Fnan
sS'Tom Attenborough'
p492
I25517
sS'Phyllis Smith'
p493
I4540
sS'Pinto Colvig'
p494
I14523
sS'Walter Cronkite'
p495
I2417
sS'Gregory Romano'
p496
I3966
sS'Bill Fagerbakke'
p497
Fnan
sS'Ed Helms'
p498
I2339
sS'Alfre Woodard'
p499
I501
sS'Eric Elmosino'
p500
I1024
sS'Caitlin Cutt'
p501
I21638
sS'Jeannie Elias'
p502
I23045
sS'Julene Renee'
p503
I230
sS'Julie Bowen'
p504
I10226
sS'Stanley Unwin'
p505
I22491
sS'Mila Kunis'
p506
I693
sS'Hunter Maki'
p507
I5768
sS'Miles Marsico'
p508
I6902
sS'Dean Cain'
p509
I12403
sS'Zach Braff'
p510
I477
sS'Sugar Lyn Beard'
p511
I10762
sS'Rainn Wilson'
p512
I857
sS'Elliott Gould'
p513
I1169
sS'Glenn McCuen'
p514
I25406
sS'Tara Strong'
p515
I299
sS'Rene LeVant'
p516
I42228
sS'Jenna Elfman'
p517
I4667
sS'Teddy Newton'
p518
I802
sS'Richard White'
p519
I6076
sS'George Kennedy'
p520
I3335
sS'Adriano Aragon'
p521
I7480
sS'Adriano Giannini'
p522
I6160
sS'Allen Zyler'
p523
I3438
sS'James Rankin'
p524
I20118
sS'Shane Baumel'
p525
I3072
sS'Hubert Deschamps'
p526
I51260
sS'Jonathan Winters'
p527
I6969
sS'Paul Brittain'
p528
I5749
sS'David Arnott'
p529
I16725
sS'Eleanor Audley'
p530
I46121
sS'Aaron Rapke'
p531
I7790
sS'Samantha Cohen'
p532
I8164
sS'Allison Fernandez'
p533
I47663
sS'Jon Lovitz'
p534
I786
sS'Ricardo Montalban'
p535
I5012
sS'Robert Pastorelli'
p536
I1731
sS'Jan Rabson'
p537
I62
sS'Jennifer Tilly'
p538
I1167
sS'Lewis Black'
p539
I2305
sS'Matt Lanter'
p540
I697
sS'Stephen Hillenburg'
p541
I6056
sS'Minae Noji'
p542
I4762
sS'Bebel Gilberto'
p543
I5383
sS'Tsai Chin'
p544
I3936
sS'Anthony Hopkins'
p545
I191
sS'Dermot Mulroney'
p546
I1370
sS'Michel Michelis'
p547
I4560
sS'Erik Per Sullivan'
p548
I1877
sS'Megumi Ogata'
p549
I1221
sS'Abigail Breslin'
p550
I2100
sS'James Gammon'
p551
I3339
sS'Jansen Panettiere'
p552
I3940
sS'Neil McCaul'
p553
I14149
sS'Adam Shaw'
p554
I12297
sS'Kelsey Lansdowne'
p555
I27135
sS'Frances McDormand'
p556
I390
sS'Ben Burtt'
p557
Fnan
sS'Sofia Vergara'
p558
I2044
sS'Dominique Blanc'
p559
I49708
sS'Brad Lewis'
p560
Fnan
sS'Mario Batali'
p561
I32223
sS'John Mariano'
p562
I27041
sS'Aaron Springer'
p563
I18084
sS'Alan Arkin'
p564
I978
sS'Timyra-Joi Beatty'
p565
I27142
sS'Alan Cumming'
p566
I515
sS'Mako'
p567
I1810
sS'Glenn Close'
p568
I383
sS'Jack McBrayer'
p569
I3583
sS'Tristan Oliver'
p570
Fnan
sS'Mirai Shida'
p571
I20502
sS'Ren??e Zellweger'
p572
I119
sS'John Hodgman'
p573
I4343
sS'Richard Carter'
p574
I2432
sS'Spencer Breslin'
p575
I1831
sS'Sylvester Stallone'
p576
I50
sS'Barbara Dirickson'
p577
I5134
sS'Claire Danes'
p578
I1870
sS'Jerry Stiller'
p579
I3936
sS'Georgina Cordova'
p580
I24486
sS'Scott McCord'
p581
I14369
sS'Catherine Deneuve'
p582
I11626
sS'James Hiroyuki Liao'
p583
Fnan
sS'Kevin Bacon'
p584
I523
sS'Shinichiro Miki'
p585
I49192
sS'Annett Mahendru'
p586
Fnan
sS'Michael Gough'
p587
I500
sS'Alex Markowitz'
p588
I51746
sS'Sergio Sendel'
p589
Fnan
sS'George Babbit'
p590
I35803
sS'Klay Hall'
p591
I11820
sS'Mansai Nomura'
p592
I20503
sS'Charles Bright'
p593
I4766
sS'Peter Wingfield'
p594
I6490
sS'Nathan Kameya'
p595
I16697
sS'Kelly Cooney'
p596
I2418
sS'Jane Horrocks'
p597
I5142
sS'Jessica Biel'
p598
I1149
sS'David Henrie'
p599
I19896
sS'Jamie Foxx'
p600
I109
sS'Ice Cube'
p601
I162
sS'Meredith Vieira'
p602
I4315
sS'Charlie Day'
p603
Fnan
sS'John DeMita'
p604
I16700
sS'Jason Fricchione'
p605
I959
sS'Phillip Glasser'
p606
I27839
sS'Paul Briggs'
p607
I2283
sS"Mark 'Rhino' Smith"
p608
I1057
sS'Chazz Palminteri'
p609
I2068
sS'Timothy West'
p610
I17868
sS'Bill Melendez'
p611
I11449
sS'Lea Salonga'
p612
I388
sS'Meira Blinkoff'
p613
I5751
sS'John Sparkes'
p614
I22489
sS'Agnes Viala'
p615
I51262
sS'Sean Hayes'
p616
I1106
sS'Annie Potts'
p617
I1184
sS'Danny Jacobs'
p618
I2108
sS'Peter Cullen'
p619
I274
sS'Ann Wilson'
p620
I37862
sS'Otis Harlan'
p621
I14527
sS'Robbie Williams'
p622
I39605
sS'Sam Vincent'
p623
I20111
sS'Megumi Hayashibara'
p624
I30280
sS'Jack Boulter'
p625
I31534
sS'Jack Blessing'
p626
I21619
sS'Walt Dohrn'
p627
I1159
sS'Laurence Fishburne'
p628
I137
sS'David Ogden Stiers'
p629
I730
sS'Corri English'
p630
I12059
sS'Elisabeth Harnois'
p631
I33953
sS'Marlie Crisafulli'
p632
I3945
sS'Bob Bergen'
p633
I4
sS'Blake Clark'
p634
I542
sS'Kevin Grady'
p635
Fnan
sS'Billy Bush'
p636
I3617
sS'Jim Varney'
p637
I1981
sS'Richard Green'
p638
I31738
sS'Michael Schumacher'
p639
I87
sS'Hayden McFarland'
p640
I9810
sS'Raven-Symon?? Pearman'
p641
I4262
sS'Leonard Nimoy'
p642
I505
sS'Lex Lang'
p643
I5418
sS'Bobs Gannaway'
p644
I16903
sS'Jonny Solomon'
p645
Fnan
sS'Austin Pendleton'
p646
I533
sS'Eric Stuart'
p647
I17489
sS'Kyle Balda'
p648
I1498
sS'Douglas Seale'
p649
I5294
sS'Alan Tudyk'
p650
I45
sS'Eric Price'
p651
I26529
sS'Charlton Heston'
p652
I700
sS'Max Casella'
p653
I2719
sS'Olivia DeLaurentis'
p654
I3958
sS'Ben Vareen'
p655
I43992
sS'Danny Trejo'
p656
I694
sS'Michael Palin'
p657
I16777
sS'Tyler Werrin'
p658
I2846
sS'Lynn Hicks'
p659
I1021
sS'McKenna Grace'
p660
I3300
sS'Ava Benavente'
p661
I21622
sS'Ming-Na'
p662
I5345
sS'Amanda Bynes'
p663
I1279
sS'Nigel Pope'
p664
I11436
sS'Yuko Miyamura'
p665
I30281
sS'Henry Burton'
p666
I22493
sS'Bette Midler'
p667
I311
sS'Brent Musburger'
p668
I2175
sS'Louis C.K.'
p669
I4993
sS'Henry Kingi'
p670
I8183
sS'Yoji Matsuda'
p671
I19003
sS'Holly Hunter'
p672
I862
sS'Alison Brie'
p673
I15419
sS'Jeff Doucette'
p674
I7767
sS'Debra Wilson'
p675
I1087
sS'Rob Paulsen'
p676
I7677
sS'Lisa Vischer'
p677
I40233
sS'Molly Cooper'
p678
I32232
sS'Ashley Jensen'
p679
I7586
sS'Marco Antonio Regil'
p680
I5391
sS'David Koechner'
p681
I1116
sS'Aubrey Plaza'
p682
I1915
sS'Troy Andrews'
p683
I11443
sS'Andy Garcia'
p684
I572
sS'Mindy Sterling'
p685
I409
sS'Jack Crocicchia'
p686
I3964
sS'Emily Barclay'
p687
Fnan
sS'Ritchie Montgomery'
p688
I803
sS'Jaiden A.M. Mathews'
p689
I11441
sS'Vincent Schiavelli'
p690
I1389
sS'Mitsuko Mori'
p691
I19007
sS'Patrick McGoohan'
p692
I5931
sS'Christopher McDonald'
p693
I1383
sS'Genesis Ochoa'
p694
I23264
sS'Ashleigh-Louis Elliot'
p695
I14810
sS'Elizabeth Gracen'
p696
I49412
sS'Hiroyuki Yamashita'
p697
Fnan
sS'Rosario Dawson'
p698
I905
sS"Benjamin 'Lil P-Nut' Flores Jr."
p699
I9050
sS'Gabriel Byrne'
p700
I2320
sS'Mick Wingert'
p701
I5132
sS'Tim Blaney'
p702
I3268
sS'Richard Page'
p703
I37846
sS'Nicholas Bird'
p704
I2226
sS'Susan Blu'
p705
I2216
sS'Alain Gagnol'
p706
Fnan
sS'Katie Leigh'
p707
I4767
sS'Jaime Pressly'
p708
I5043
sS'Jean-Loup Felicioli'
p709
Fnan
sS'John DiMaggio'
p710
I437
sS'Erin Kerr'
p711
I25418
sS'Brian Stepanek'
p712
I2244
sS'Colin Farrell'
p713
I214
sS'Anthony Anderson'
p714
I319
sS'Angelica Vale'
p715
Fnan
sS'John Witherspoon'
p716
I5975
sS'Josh Lawson'
p717
I7091
sS'Liza De Weerd'
p718
I16691
sS'Jeff Daniels'
p719
I522
sS'Jon Polito'
p720
I1963
sS'Kristopher Logan'
p721
I18092
sS'Paul Pape'
p722
I2829
sS'Joshua Stern'
p723
I21632
sS'Noah Johnston'
p724
I2033
sS'Sophie Laughton'
p725
I22497
sS'Kiefer Sutherland'
p726
I1076
sS'Doug Dale'
p727
I5754
sS'Denise Pleune'
p728
I37852
sS'Christian Bale'
p729
I29
sS'Teri Hatcher'
p730
I2008
sS'Jean Cocteau'
p731
Fnan
sS'Nick Petok'
p732
I21626
sS'Thomas Lennon'
p733
I304
sS'Robbie Coltrane'
p734
I7
sS'Dan Fogelman'
p735
Fnan
sS'Daveigh Chase'
p736
I6520
sS'Ty Burrell'
p737
I715
sS'Anne Meara'
p738
I2903
sS'Andy Merrill'
p739
I48271
sS'Edie Mirman'
p740
I1380
sS'Christopher Daniel Barnes'
p741
I647
sS'Nancy Truman'
p742
I16716
sS'Tom Everett Scott'
p743
I15899
sS'Stephanie Sawyer'
p744
I12667
sS'Bob Newhart'
p745
I5206
sS'Evan Dunn'
p746
I9123
sS'Sarah Bolger'
p747
I1253
sS'Sean Charmatz'
p748
I7481
sS'Philip Daniel Bolden'
p749
I22499
sS'Sunny Sandler'
p750
I7418
sS'Vivian Schilling'
p751
Fnan
sS'Daniel Craig'
p752
I156
sS'Craig Ferguson'
p753
Fnan
sS'Michael Caine'
p754
I43
sS'Alex Dowding'
p755
I1495
sS'Craig Bierko'
p756
I5910
sS'Charles Napier'
p757
I1291
sS'John McIntire'
p758
I16309
sS'Zach Tyler'
p759
I31731
sS'Amanda Farinos'
p760
I5969
sS'Jordan Fry'
p761
I727
sS'Djimon Hounsou'
p762
I98
sS'Rob Huebel'
p763
I1900
sS'John Candy'
p764
I2207
sS'Dave Wittenberg'
p765
I11818
sS'Hadley Belle Miller'
p766
I11458
sS'Jason Pace'
p767
I16719
sS'Victor Garber'
p768
I151
sS'Anne Hathaway'
p769
I106
sS'Dwayne Johnson'
p770
I36
sS'Will Finn'
p771
I9132
sS'Michael DeMaio'
p772
I3874
sS'Aaron Paul'
p773
I630
sS'David Carradine'
p774
I6127
sS'Steve Alpert'
p775
I10748
sS'Chris North'
p776
I34102
sS'Eric Stonestreet'
p777
I4641
sS'Pierre Coffin'
p778
I366
sS'Val Kilmer'
p779
I779
sS'Don Frye'
p780
I12981
sS'Taylor Swift'
p781
I491
sS'Calum Grant'
p782
I2902
sS'Patrick Pinney'
p783
I459
sS'Kate Winslet'
p784
I60
sS'Jordy Ranft'
p785
I2223
sS'Jennifer Grey'
p786
I5695
sS'Mario Andretti'
p787
I89
sS'Sam Neill'
p788
I659
sS'Lawrence Watson'
p789
I17718
sS'Simon Greenall'
p790
I17408
sS'KellyAnn Kelso'
p791
I15435
sS'Vanessa Bayer'
p792
I1592
sS'Brian Morris'
p793
Fnan
sS'Emilie de Ravin'
p794
I6398
sS'Will Estes'
p795
I17811
sS'Nick Kroll'
p796
I8948
sS'Lindsey Russell'
p797
I5142
sS'Emma Watson'
p798
I4
sS'Robin Hurlstone'
p799
I32222
sS'Alex Rockhill'
p800
I25408
sS'Terri Douglas'
p801
I1696
sS'Patrick Warburton'
p802
I309
sS'Angelina Jolie Pitt'
p803
I62
sS'Humpy Wheeler'
p804
I5932
sS'Dane A. Davis'
p805
Fnan
sS'Randall Thom'
p806
I11439
sS'Selena Gomez'
p807
I882
sS'Mike Mitchell'
p808
I2417
sS'Isabella Peregrina'
p809
I8808
sS'Reckless Jack'
p810
I21141
sS'Judith Sandler'
p811
I17456
sS'Lewis Hamilton'
p812
I64
sS'Finley Jacobsen'
p813
I5612
sS'Tom Urie'
p814
I43928
sS'Clinton Leupp'
p815
I23051
sS'Terrence Hardy'
p816
I27144
sS'Fuschia '
p817
I1891
sS'John Lithgow'
p818
I398
sS'Charlie Adler'
p819
I36958
sS'Carter Sand'
p820
I5759
sS'Matt Damon'
p821
I14
sS'Peter Sohn'
p822
I794
sS'Steve Martin'
p823
I141
sS'Bill Birch'
p824
I43489
sS'Ken Sansom'
p825
I25518
sS'Bridget Hoffman'
p826
I567
sS'Anton Yelchin'
p827
I705
sS'Hudson Thames'
p828
I25398
sS'Jamieson Price'
p829
I51813
sS'Eddie Murphy'
p830
I8
sS'Charlie Finn'
p831
I10659
sS'Rob Hersov'
p832
I32221
sS'Alina Phelan'
p833
I1364
sS'Kori Elmore'
p834
I11460
sS'Carlos Ponce'
p835
I5063
sS'Robert Ben Garant'
p836
Fnan
sS'Nicole Veira'
p837
I16696
sS'Matthew McConaughey'
p838
I397
sS'Derek Drymon'
p839
I18100
sS'Diana Kent'
p840
I25263
sS'Romi Park'
p841
I49197
sS'Armand Assante'
p842
I3635
sS'Jason Housman'
p843
I37844
sS'Conrad Vernon'
p844
I255
sS'Claude Pieplu'
p845
I51259
sS'Amber Gainey Meade'
p846
I7791
sS'Brian Herskowitz'
p847
Fnan
sS'Michael Wallis'
p848
I4562
sS'Salome Jens'
p849
I5950
sS'Dan Navarro'
p850
I23257
sS'Danielle Brooks'
p851
I8155
sS'Keith Ferguson'
p852
I860
sS'Grier King'
p853
I27132
sS'Sam "Penguin" Black'
p854
I4567
sS'Courteney Cox'
p855
I1862
sS'Mariel Sheets'
p856
I11467
sS'Richard Kind'
p857
I127
sS'Richard Epcar'
p858
I27141
sS'Omid Djalili'
p859
I1163
sS'David Wenham'
p860
I281
sS'Elizabeth Perkins'
p861
I796
sS'Harry Stockwell'
p862
I14522
sS'Corey Burton'
p863
I6366
sS'Rosie Perez'
p864
I9470
sS'Julie Lemiux'
p865
I20122
sS'Christine Rochelau'
p866
Fnan
sS'Don Rickles'
p867
I524
sS'Oscar Beard'
p868
I16722
sS'Eva Bella'
p869
I1666
sS'Marion Cotillard'
p870
I402
sS'Jesse Tyler Ferguson'
p871
Fnan
sS'Roger L. Jackson'
p872
I17507
sS'Wolfgang Reitherman'
p873
Fnan
sS'Bebe Neuwirth'
p874
I4009
sS'Hector Elizondo'
p875
I877
sS'Catherine Zeta-Jones'
p876
I144
sS'Sinbad'
p877
I5817
sS'Christina Hendricks'
p878
I10638
sS'Brooke Bloom'
p879
I28605
sS'Django Craig'
p880
I16711
sS'David Acord'
p881
Fnan
sS'Moria Quirk'
p882
I16715
sS'Will Ryan'
p883
I19398
sS'Matthew P. McCarthy'
p884
I3976
sS'Thomas Stanley'
p885
I4321
sS'Jon Stewart'
p886
I4393
sS'Jo Harvey Allen'
p887
I9538
sS'Stephen Kearin'
p888
I398
sS'Hugh Grant'
p889
I557
sS'Kristin Blegen'
p890
I40234
sS'Tom Magiozzi'
p891
I88
sS'Clark Duke'
p892
I8146
sS'Natalie Morales'
p893
I4862
sS'Ron Bottitta'
p894
I7702
sS'Anthony Daniels'
p895
I32
sS'Kelly Sheridan'
p896
I21616
sS'Reyna Shaskan'
p897
I3959
sS'Peter Mansbridge'
p898
I1888
sS'Elton John'
p899
Fnan
sS'Lili Ishida'
p900
I2222
sS'George Jacobs'
p901
I960
sS'Dennis Hopper'
p902
I2063
sS'Hulk Hogan'
p903
I7280
sS'Christopher Sabat'
p904
I29790
sS'Matt McCarthy'
p905
I8150
sS'Beatrice Miller'
p906
I1455
sS'Peter Ackerman'
p907
Fnan
sS'Philippe Katerine'
p908
I48193
sS'Wendie Malick'
p909
I5021
sS'John Cleese'
p910
I64
sS'Ryan Ochoa'
p911
I7789
sS'Jennifer Jason Leigh'
p912
I3688
sS'Keith Silverstein'
p913
I2443
sS'Jodelle Ferland'
p914
I2449
sS'Natasha Lyonne'
p915
I1378
sS'Jerry Orbach'
p916
I2896
sS'Simon Kassianides'
p917
I4227
sS'Max Hoffman'
p918
I35932
sS'Janet Varney'
p919
I23930
sS'Fred Willard'
p920
I848
sS'Doug Nicholas'
p921
I5965
sS'Elijah Wood'
p922
I182
sS'Sterling Holloway'
p923
I18116
sS'Josh Keaton'
p924
I8039
sS'Jeremy Shada'
p925
I21630
sS'George Segal'
p926
I1384
sS'Ashley Liu'
p927
I25403
sS'Dianne Wiest'
p928
I1792
sS'Miriam Flynn'
p929
I15224
sS'Peter Dante'
p930
I2540
sS'Michael Sorich'
p931
I14564
sS'Kathleen Freeman'
p932
I1832
sS'Jessica George'
p933
I24493
sS'Cathy Cavadini'
p934
I38840
sS'Stephen F. Apostolina'
p935
I9725
sS'Brian McFadden'
p936
I3981
sS'Brian Murray'
p937
I24217
sS'Tim Hodge'
p938
I40231
sS'Paul Rudd'
p939
I158
sS'Greg Cipes'
p940
I5917
sS'Brad Abrell'
p941
I3887
sS'Ellen Albertini Dow'
p942
I6380
sS'Bryan White'
p943
I36944
sS'Samuel E. Wright'
p944
I7775
sS'Arame Scott'
p945
I11444
sS'Elizabeth Banks'
p946
I41
sS'Brittney Lee Harvey'
p947
I9127
sS'Della Reese'
p948
I7774
sS'Benoit Charest'
p949
Fnan
sS'Randy Thom'
p950
Fnan
sS'Heddy Burress'
p951
I48822
sS'Rafael Scarpa Saldanha'
p952
I5381
sS"Shaquille O'Neal"
p953
I1460
sS'Phil Johnston'
p954
Fnan
sS'Jodi Benson'
p955
I581
sS'James Woods'
p956
I838
sS'Cindy Slattery'
p957
I1527
sS'Amy Poehler'
p958
I521
sS'Drew Carey'
p959
I1251
sS'Laura Strachan'
p960
I12290
sS'Roey Smigel'
p961
I5766
sS'John Daily'
p962
I25420
sS'Daran Norris'
p963
I8626
sS'Joe Ochman'
p964
I10133
sS'Dominic West'
p965
I169
sS'Sherry Lynn'
p966
I15
sS'Nicki Minaj'
p967
I1706
sS'Yuko Tanaka'
p968
I13918
sS'Kevin James'
p969
I246
sS'Robert Costanzo'
p970
I1561
sS'Jonathan Freeman'
p971
I389
sS"Chris O'Dowd"
p972
I1196
sS'Jane Leeves'
p973
I11396
sS'Cam Clarke'
p974
I3173
sS'Colin Ford'
p975
I15357
sS'Kathy Bates'
p976
I117
sS'Pat Fraley'
p977
I3352
sS'James Urbaniak'
p978
I14258
sS'Melanie Lasnier'
p979
Fnan
sS'Bennett Dammann'
p980
I2098
sS'Josh Robert Thompson'
p981
I4655
sS'Frances Bella Kayser'
p982
I11438
sS'Paul Zies'
p983
I11060
sS'Chiara Mastroianni'
p984
Fnan
sS'David Walliams'
p985
I4068
sS'Rob Tinkler'
p986
I18236
sS'Steven Clay Hunter'
p987
Fnan
sS'Richard Petty'
p988
Fnan
sS'Ziggy Marley'
p989
I7421
sS'Stanley Townsend'
p990
I4231
sS'Dave Rosenberg'
p991
I1257
sS'David Schwimmer'
p992
I809
sS'Bryan Fabian'
p993
I31739
sS'Catherine Keener'
p994
I829
sS'Mary Louise Gemmill'
p995
I36955
sS'Nicole Kidman'
p996
I89
sS'Kevin Farley'
p997
I35304
sS'Jared Harris'
p998
I660
sS'Linda Hunt'
p999
I2968
sS'Noreen Reardon'
p1000
I11980
sS'Dale Dye'
p1001
I514
sS'Kate McKinnon'
p1002
I1093
sS'Noah Cyrus'
p1003
I672
sS'Simon Pegg'
p1004
I575
sS'Jason Marsden'
p1005
I1530
sS'Joe Mantegna'
p1006
I1390
sS'Shane Sweet'
p1007
I3950
sS'Ashley Lambert'
p1008
I21636
sS'Meibh Campbell'
p1009
I16695
sS'Geri Lee Gorowski'
p1010
I15438
sS'Douglas Urbanski'
p1011
Fnan
sS'Patrick Harpin'
p1012
I5758
sS'April Winchell'
p1013
I786
sS'John Carradine'
p1014
I12048
sS'Will Smith'
p1015
I11
sS'Tommy Lister'
p1016
I1882
sS'Tom Amundsen'
p1017
I9128
sS'Kellie Martin'
p1018
I28405
sS'George Lopez'
p1019
I883
sS'Patti Deutsch'
p1020
I15436
sS'Rachael Harris'
p1021
I813
sS'Kristen Schaal'
p1022
I413
sS'Ernest Borgnine'
p1023
I7154
sS'Nona Gaye'
p1024
I831
sS'Kellie Hoover'
p1025
I1312
sS'Prano Bailey-Bond'
p1026
I24491
sS'Idris Elba'
p1027
I63
sS'Donna Murphy'
p1028
I686
sS'Limara Meneses'
p1029
I2963
sS'Ruth Zalduondo'
p1030
I16694
sS'Caitlin Rose Anderson'
p1031
I3977
sS'Nancy Cartwright'
p1032
I1947
sS'Kaitlyn Maher'
p1033
I21363
sS'Max Charles'
p1034
I453
sS'Kevin Michael Richardson'
p1035
I2331
sS'Mario Cantone'
p1036
I2299
sS'Colette Whitaker'
p1037
I1493
sS'Rod Taylor'
p1038
I5575
sS'Annemie Degryse'
p1039
Fnan
sS'Nick Shakoour'
p1040
I36962
sS'Jason Lee'
p1041
I490
sS'Amanda Peet'
p1042
I874
sS'Dylan Sprouse'
p1043
I629
sS'Ranjani Brow'
p1044
I21624
sS'Daniel Tay'
p1045
I12624
sS'Erik Estrada'
p1046
I680
sS'Jennifer Connelly'
p1047
I985
sS'Benjamin Bratt'
p1048
I587
sS'Marguerite Abouet'
p1049
I46375
sS'Rita Moreno'
p1050
I4740
sS'Mel Brooks'
p1051
I1369
sS'Katy Mixon'
p1052
I1184
sS'Ron Howard'
p1053
Fnan
sS'Ewan McGregor'
p1054
I46
sS'John Sharian'
p1055
I2434
sS'Lily Tomlin'
p1056
I3376
sS'Sarah Aubrey'
p1057
Fnan
sS'Moira Kelly'
p1058
I2342
sS'Suzu Hirose'
p1059
I1772
sS'Salma Hayek'
p1060
I644
sS'Ryan Reynolds'
p1061
I96
sS'Roddy McDowall'
p1062
I2981
sS'Joshua Silk'
p1063
I14808
sS'Al Rodrigo'
p1064
I4022
sS'Alfred Jackson'
p1065
I31727
sS'Tyler Labine'
p1066
I1192
sS'Kerry Gutierrez'
p1067
I3782
sS'Beau Billingslea'
p1068
I34416
sS'Jason Sudeikis'
p1069
I4261
sS'Mark DeCarlo'
p1070
I31106
sS'Colm Meaney'
p1071
I1700
sS'Harry Pashley'
p1072
I16718
sS'Alecia Moore'
p1073
I16726
sS'Vincent Price'
p1074
I13611
sS'Julia Sweeney'
p1075
I1554
sS'Toby Jones'
p1076
I47
sS'Ray Wise'
p1077
I3196
sS'Nasim Pedrad'
p1078
I856
sS'Malena Brewer'
p1079
I8152
sS'Colin Cunningham'
p1080
I16972
sS'Bobbi Page'
p1081
I8904
sS'Rob Minkoff'
p1082
Fnan
sS'Jason Simpson'
p1083
I20101
sS'Brian T. Delaney'
p1084
I436
sS'A.J. Buckley'
p1085
I8391
sS'Eva Gavor'
p1086
I34269
sS'Justin Shenkarow'
p1087
I44441
sS'Blu Murray'
p1088
Fnan
sS'Andrea Bowen'
p1089
I7104
sS'Kirsten Dunst'
p1090
I341
sS'Terence D. Mathews II'
p1091
I11450
sS'Jaime Aymerich'
p1092
I38542
sS'Newell Alexander'
p1093
I14297
sS'Candi Milo'
p1094
I28552
sS'Kathleen Browers'
p1095
I41814
sS'Hannibal Buress'
p1096
I1899
sS'David Lucas'
p1097
I52488
sS'Aria Noelle Curzon'
p1098
I7188
sS'Danny De Vito'
p1099
I348
sS'Manoela Scarpa Saldanha'
p1100
I1529
sS'Kirk Thornton'
p1101
I5417
sS'Alex Sullivan'
p1102
I3975
sS'Oprah Winfrey'
p1103
I1618
sS'James Franco'
p1104
I238
sS'John Turturro'
p1105
I86
sS'James Marsden'
p1106
I320
sS'Lola Bates-Campbell'
p1107
I41547
sS'Scott Yaphe'
p1108
I20120
sS'Kevin Conroy'
p1109
I2179
sS'Meredith Anne Bull'
p1110
Fnan
sS'Kristen Wiig'
p1111
I141
sS'Todd Cummings'
p1112
I8625
sS'Catherine Winder'
p1113
Fnan
sS'Michelle Lannen'
p1114
Fnan
sS'Ron Perlman'
p1115
I1043
sS'Andrew Adamson'
p1116
Fnan
sS'Marco Aurelio Camps'
p1117
I48361
sS'Lisa Hannigan'
p1118
I44684
sS'Betty Lou Gerson'
p1119
I17260
sS'Meryl Streep'
p1120
I73
sS'Vanessa Redgrave'
p1121
I923
sS'Jennifer Cody'
p1122
I10536
sS'Brian Blessed'
p1123
I555
sS'Phil Morris'
p1124
Fnan
sS'James Garner'
p1125
I2813
sS'Joe Ranft'
p1126
I729
sS'Leslie Mann'
p1127
I435
sS'Vernee Watson-Johnson'
p1128
I18072
sS'Chris Ragland'
p1129
I1494
sS'Pascal Mazzotti'
p1130
I3649
sS'Tim Mertens'
p1131
Fnan
sS'Regis Philbin'
p1132
I790
sS'Nicholas Guest'
p1133
I557
sS'Sonny Strait'
p1134
I29789
sS'Bernard Hill'
p1135
I90
sS'Chad Allen'
p1136
I43496
sS'German Gutierrez'
p1137
Fnan
sS'Jean-Pierre Kalfon'
p1138
I46373
sS'Mark Dindal'
p1139
Fnan
sS'Roscoe Lee Browne'
p1140
I3908
sS'Pink'
p1141
I141
sS'Shark Firestone'
p1142
I48820
sS'Jack McGraw'
p1143
I8402
sS'Jemaine Clement'
p1144
I1200
sS'Adam Jennings'
p1145
I33961
sS'A.J. Teece'
p1146
I11471
sS'Jim Parsons'
p1147
I14098
sS'Eartha Kitt'
p1148
I9175
sS'David Boat'
p1149
I8399
sS'Tim Allen'
p1150
I64
sS'Geoffrey Blake'
p1151
I746
sS'Orville Forte'
p1152
I5973
sS'Allison Mack'
p1153
I31740
sS'Dale Earnhardt Jr.'
p1154
I92
sS'Nola Donkin'
p1155
I5379
sS'Myles Jeffrey'
p1156
I9899
sS'Colin Cowherd'
p1157
I11823
sS'Melanie Chartoff'
p1158
I10574
sS'Jack Black'
p1159
I61
sS'Carlos Saldanha'
p1160
Fnan
sS'Ryan Potter'
p1161
I302
sS'Jess Harnell'
p1162
I33
sS'David Bowers'
p1163
Fnan
sS'John P. Ryan'
p1164
I12597
sS'Michael Imperioli'
p1165
I3177
sS'Randy Savage'
p1166
I8627
sS'Liam Hourican'
p1167
I44683
sS'Nathan Kress'
p1168
I5872
sS'Vin Diesel'
p1169
I19
sS'Brian Benben'
p1170
I17970
sS'Indra Raval'
p1171
I8149
sS"Beverly D'Angelo"
p1172
I3734
sS'Jeff Fierson'
p1173
I21372
sS'Gwendolyn Yates Whittle'
p1174
Fnan
sS'Tim Bentinck'
p1175
I14095
sS'Devon Werkheiser'
p1176
I13930
sS'Frank Topol'
p1177
I11737
sS'Jane Carr'
p1178
I1152
sS'Edward Norton'
p1179
I789
sS'Laura Ortiz'
p1180
I1714
sS'Raman Hui'
p1181
Fnan
sS'Stephen Anderson'
p1182
Fnan
sS'Laraine Newman'
p1183
I59
sS'Lewis Macleod'
p1184
I547
sS'Loni Anderson'
p1185
I28710
sS'Wes Anderson'
p1186
Fnan
sS'Tony Jay'
p1187
I18290
sS'Lynn Redgrave'
p1188
I9823
sS'Zoe Saldana'
p1189
I41
sS'Andy Nyman'
p1190
I1167
sS'Lesley Stahl'
p1191
I4317
sS'Jamie Lee Curtis'
p1192
I1359
sS'Jake M. Johnson'
p1193
I5964
sS'Emily Anderson'
p1194
I3980
sS'Dan Molina'
p1195
Fnan
sS'Susan Blakeslee'
p1196
I2890
sS'Colette Loumede'
p1197
Fnan
sS'Burke Byrnes'
p1198
I17704
sS'Eric Darnell'
p1199
Fnan
sS'Patrick Walker'
p1200
I4558
sS'Liam Mulvey'
p1201
Fnan
sS'Rashida Jones'
p1202
I1089
sS'Lauren Holly'
p1203
I1665
sS'Lake Bell'
p1204
I799
sS'Scarlett Johansson'
p1205
I27
sS'Hugo Weaving'
p1206
I3
sS'Dan Aykroyd'
p1207
I276
sS'Kate Micucci'
p1208
I2123
sS'Carol Cleveland'
p1209
I52638
sS'David Gore'
p1210
I32980
sS'Shannen Doherty'
p1211
I21514
sS'Masahiko Nishimura'
p1212
I11724
sS'Bernadette Lafont'
p1213
Fnan
sS'Amanda Seyfried'
p1214
I267
sS'Jennifer Hale'
p1215
I43164
sS'Gita Reddy'
p1216
I1294
sS'Susan Duerden'
p1217
I14370
sS'Isla Fisher'
p1218
I2349
sS'Fred Tatasciore'
p1219
I148
sS'Ben Schwartz'
p1220
I8410
sS'Lenny Henry'
p1221
I2246
sS'Allison Abbate'
p1222
Fnan
sS'Shota Sometani'
p1223
I45099
sS'Charlie Tahan'
p1224
I3817
sS'Jacques-Remy Girerd'
p1225
Fnan
sS'Kara Edwards'
p1226
I29791
sS'Jeremy Dawson'
p1227
Fnan
sS'Angel Harper'
p1228
I28077
sS'Hugh Laurie'
p1229
I2723
sS'Kit Harington'
p1230
I3356
sS'Robert Guillaume'
p1231
I1942
sS'Ed Begley, Jr.'
p1232
I1976
sS'Maggie Gyllenhaal'
p1233
I917
sS'Dave Willis'
p1234
I48270
sS'Rob Reiner'
p1235
I1789
sS'Daniel Hansen'
p1236
I729
sS'Gabriel Iglesias'
p1237
I3047
sS'Nic Robuck'
p1238
I36961
sS'Ellen Blain'
p1239
I2123
sS'Freddie Highmore'
p1240
I234
sS'Lisa Kay'
p1241
I12289
sS'Ben Diskin'
p1242
I36951
sS'Nikolas Bravos'
p1243
I11442
sS'Elisabeth Moss'
p1244
I19899
sS'Jimmy Fallon'
p1245
I967
sS'Morgan Freeman'
p1246
I79
sS'Dana Snyder'
p1247
I36646
sS'Emma Thompson'
p1248
I92
sS'Scotty Mattraw'
p1249
I14526
sS'Shane Glick'
p1250
I3876
sS'Christoph Waltz'
p1251
I929
sS'Don Lake'
p1252
I762
sS'Bruno Campos'
p1253
I574
sS'Caitlin McKenna'
p1254
I3789
sS'Bud Luckey'
p1255
I1719
sS'John Di Maggio'
p1256
I5318
sS'Alex Rocco'
p1257
I2285
sS'Art Parkinson'
p1258
I3651
sS'Michael McElhatton'
p1259
I36372
sS'Billy Eichner'
p1260
I2851
sS'Stefanie Scott'
p1261
I843
sS'Danny Mann'
p1262
I40
sS'Maaya Sakamoto'
p1263
I31491
sS'Kevin Sussman'
p1264
I9817
sS'Patricia Cullen'
p1265
I24494
sS'Robert Ochoa'
p1266
I33957
sS'Cory Edwards'
p1267
I20387
sS'Josh Peck'
p1268
I289
sS'Danny Cooksey'
p1269
I8013
sS'Jennifer Saunders'
p1270
I516
sS'Wendy Hoffman'
p1271
I21634
sS'Dennis Quaid'
p1272
I124
sS'Mia Sinclair Jenness'
p1273
I5764
sS'Charlie Hayes'
p1274
I1499
sS'Gerard Butler'
p1275
I125
sS'Marcelo Tubert'
p1276
I34740
sS'Mitchell Whitfield'
p1277
I945
sS'Nicholas Smith'
p1278
I13998
sS'Aaron LaPlante'
p1279
I5762
sS'Gary Eck'
p1280
I16698
sS'Jonathan Loughran'
p1281
I1016
sS'Ashton Kutcher'
p1282
I994
sS'Jonathan Nichols'
p1283
I9126
sS'Steve Bencich'
p1284
Fnan
sS'Ving Rhames'
p1285
I260
sS'Rodger Bumpass'
p1286
I1753
sS'Lucille La Verne'
p1287
I14525
sS'Mary Gibbs'
p1288
I4566
sS'Bruno Mars'
p1289
I5394
sS'Reese Witherspoon'
p1290
I98
sS'Blake Shelton'
p1291
I8160
sS'Vicki Lewis'
p1292
I461
sS'Ester Dean'
p1293
Fnan
sS'Sofie Wolfe'
p1294
I8158
sS'Carey Means'
p1295
I48268
sS'John Hurt'
p1296
I99
sS'Moises Arias'
p1297
I1360
sS'Ellie Kemper'
p1298
I6474
sS'Donald Pleasance'
p1299
I7332
sS'Chlo?? Grace Moretz'
p1300
I254
sS'Dakota Goyo'
p1301
I1722
sS'Bruno Salomone'
p1302
I2730
sS'Kunal Nayyar'
p1303
I2445
sS'Martin Ballard'
p1304
I32227
sS'Clive Robertson'
p1305
I31725
sS'Dave Zyler'
p1306
I20296
sS'Lynnanne Zager'
p1307
I749
sS'Andy Dick'
p1308
I2444
sS'Keith David'
p1309
I258
sS'Marc John Jefferies'
p1310
I1323
sS'Tituss Burgess'
p1311
I8163
sS'Adam Sandler'
p1312
I66
sS'John Rubano'
p1313
I15929
sS'Johnny Sanchez'
p1314
I8724
sS'Wallace Wolodarsky'
p1315
I22567
sS'Ozzy Osbourne'
p1316
I61
sS'Saif Ali Khan'
p1317
I1254
sS'Jamie Chung'
p1318
I643
sS'Franco Nero'
p1319
I2892
sS'Seth Rogen'
p1320
I114
sS'Claira Nicole Titman'
p1321
I2718
sS'Miranda Cosgrove'
p1322
I1606
sS'Sava Lolov'
p1323
I51772
sS'Michael Wincott'
p1324
I2085
sS'Graham Miller'
p1325
I5977
sS'Mamoru Oshii'
p1326
Fnan
sS'Julian Holloway'
p1327
I8854
sS'Jorma Taccone'
p1328
I1901
sS'Anna Kendrick'
p1329
I301
sS'Paul Butcher'
p1330
I3344
sS'Vincente DiSanti'
p1331
I21370
sS'Heather Morris'
p1332
Fnan
sS'Pat Hingle'
p1333
I1028
sS'Andy Huggins'
p1334
I1024
sS'Ossie Davis'
p1335
I2355
sS'Robert Hall'
p1336
I43993
sS'Jack Bright'
p1337
I510
sS'Lewis Arquette'
p1338
I5234
sS'Georgia Engel'
p1339
I5314
sS'Worm Miller'
p1340
I43488
sS'Michael Hyland'
p1341
I8903
sS'Cathianne Blore'
p1342
I32186
sS'Tommy Chong'
p1343
I1867
sS'Crispin Freeman'
p1344
I3969
sS'Alex Borstein'
p1345
I1183
sS'Kazuhiko Inoue'
p1346
Fnan
sS'Amer Shomali'
p1347
Fnan
sS'Forest Whitaker'
p1348
I764
sS'Peter Jacobson'
p1349
I1673
sS'Peri Gilpin'
p1350
I27242
sS'Trevor Gagnon'
p1351
I1333
sS'Isabelle Fuhrman'
p1352
I2057
sS'Todd Glass'
p1353
I25421
sS'Seann William Scott'
p1354
I184
sS'Lucy Alexis Liu'
p1355
I323
sS'Daniel Henney'
p1356
I1705
sS'Nia Medi James'
p1357
I22488
sS'Kevin McDonald'
p1358
I40864
sS'Alec Medlock'
p1359
I2077
sS'Jack Angel'
p1360
I12
sS'Toni Collette'
p1361
I1164
sS'Freddie Jones'
p1362
I13090
sS'Madisyn Shipman'
p1363
I11457
sS'Stephen Colbert'
p1364
I740
sS'Carmen Argenziano'
p1365
I1375
sS'Todd Duffey'
p1366
I18102
sS'Jo McGinley'
p1367
I26683
sS'Neil Peart'
p1368
I48269
sS'Timothy Spall'
p1369
I9
sS'Steve Barr'
p1370
I9206
sS'George C. Scott'
p1371
I8452
sS'Billy Barty'
p1372
I15818
sS'Andre Robinson'
p1373
I1065
sS'Nehemiah Persoff'
p1374
I27840
sS'Lesley Manville'
p1375
I1648
sS'James Hamilton'
p1376
I25744
sS'Buzz Aldrin'
p1377
I935
sS'Zachary Rice'
p1378
I1497
sS'Peter Sagal'
p1379
I2667
sS'Josh Hutcherson'
p1380
I245
sS'Gedde Watanabe'
p1381
I2009
sS'Janeane Garofalo'
p1382
I1945
sS'Jacob Tartakovsky'
p1383
I5761
sS'Lee Tockar'
p1384
I41428
sS'Joe Whyte'
p1385
I2266
sS'Craig T. Nelson'
p1386
I871
sS'Charlie Sheen'
p1387
I248
sS'Jeff Biancalana'
p1388
I21366
sS'Adrian Paul'
p1389
I1855
sS'Dawn French'
p1390
I866
sS'John Fiedler'
p1391
I15434
sS'Jeff Garlin'
p1392
I262
sS'Ross Simanteris'
p1393
I3963
sS'Yuriko Ishida'
p1394
I19005
sS'Dylan Haggerty'
p1395
I7504
sS'Cary Elwes'
p1396
I727
sS'Mathieu Amalric'
p1397
I2356
sS'Alec Baldwin'
p1398
I120
sS'Justin Long'
p1399
I2277
sS'Joey Shea'
p1400
I42232
sS'Melendy Britt'
p1401
I5756
sS'Grace Zabriskie'
p1402
I1451
sS'Mason Vale Cotton'
p1403
I16721
sS'Ernie Sabella'
p1404
I29056
sS'Jason Finazzo'
p1405
I21364
sS'Kate Hudson'
p1406
I1436
sS'Julia Child'
p1407
I42230
sS'Joseph Sanfelippo'
p1408
I5765
sS'Allison Janney'
p1409
I75
sS'Nicole Wedel'
p1410
I11462
sS'Max Spitz'
p1411
I36968
sS'Satoshi Hino'
p1412
Fnan
sS'Jada Pinkett Smith'
p1413
I225
sS'Jay Jones'
p1414
I38494
sS'Eve Mauro'
p1415
I27608
sS'Peter Strauss'
p1416
I17572
sS'Crispin Glover'
p1417
I546
sS'Allen Covert'
p1418
I427
sS'William Sheppard'
p1419
I21368
sS'Jason Alexander'
p1420
I2463
sS'Alison Krauss'
p1421
I37860
sS'Lori Tritel'
p1422
I21140
sS'Chance Langton'
p1423
I37863
sS'Michael Daingerfield'
p1424
I13937
sS'Abe Vigoda'
p1425
I3569
sS'Daniel Kaz'
p1426
I23052
sS'P.J. Prinsloo'
p1427
I23108
sS'Janelle Monae'
p1428
I6256
sS'Duncan Marjoribanks'
p1429
I28101
sS'Oliver Kindred'
p1430
I1376
sS'Knox Jolie Pitt'
p1431
I5130
sS'Michael Powers'
p1432
I3947
sS'Cooper Cowgill'
p1433
I3956
sS'Arsenio Hall'
p1434
I7395
sS'Nolan North'
p1435
I4361
sS'Jillian Sandler'
p1436
I37843
sS'Bill Murray'
p1437
I140
sS'Scatman Crothers'
p1438
I6939
sS'Will Pollock'
p1439
I24482
sS'Eilidh Rankin'
p1440
I43929
sS'Bill Hunter'
p1441
I1519
sS'Nicollette Sheridan'
p1442
I20141
sS'Paul Blackthorne'
p1443
I6031
sS'Don Reed'
p1444
I43991
sS'Brendan Fraser'
p1445
I586
sS'Christina Ricci'
p1446
I1223
sS'Susan Huber'
p1447
I29793
sS'Alicia Logono'
p1448
I21621
sS'Joanna Lumley'
p1449
I2738
sS'Owen Wilson'
p1450
I91
sS'Richard Webber'
p1451
I22492
sS'Bob Peterson'
p1452
I136
sS'Connor Funk'
p1453
I18291
sS'Heather Doerksen'
p1454
I5251
sS'Douglas Keever'
p1455
I5926
sS'Lenny Venito'
p1456
I2280
sS'Harold Gould'
p1457
I1988
sS'Tonita Castro'
p1458
I21435
sS'Erica Beck'
p1459
I2221
sS'Christina Applegate'
p1460
I756
sS'Guillaume Aretos'
p1461
Fnan
sS'John Cusack'
p1462
I103
sS'Benicio Del Toro'
p1463
I935
sS'Asher Glaser'
p1464
I36965
sS'Abraham Benrubi'
p1465
I1097
sS'Jaeden Bettencourt'
p1466
I5747
sS'Harry Shearer'
p1467
I745
sS'Jim Pirri'
p1468
I3603
sS'Ferrell Barron'
p1469
I16904
sS'Kelsey Grammer'
p1470
I463
sS'Vanessa Johansson'
p1471
I43491
sS'James Remar'
p1472
I631
sS'Greg Kinnear'
p1473
I1336
sS'Roy Atwell'
p1474
I14524
sS'Raymond Bussieres'
p1475
I51258
sS'Tom Hanks'
p1476
I1
sS'Radzi Chinyanganya'
p1477
I5140
sS'Meyrick Murphy'
p1478
I29718
sS'Wayne Newton'
p1479
I12217
sS'Jacob Steele'
p1480
I51742
sS'Frank Langella'
p1481
I1009
sS'Hayden Panettiere'
p1482
I1827
sS'Chung Chan'
p1483
I25792
sS'Hugh Jackman'
p1484
I21
sS'Don Novello'
p1485
I8851
sS'Terence Hardy'
p1486
I4314
sS'Lauren Tom'
p1487
I3277
sS'Ray Romano'
p1488
I72
sS'James Belushi'
p1489
I1582
sS'Rove McManus'
p1490
I36953
sS'Ian Abercrombie'
p1491
I8115
sS'Hiroyuki Sanada'
p1492
I393
sS'Jeff LeBeau'
p1493
I21740
sS'Paul Eiding'
p1494
I1824
sS'Brian Dennehy'
p1495
I1091
sS"Bobb'e J. Thompson"
p1496
I6708
sS'Gunnar Sizemore'
p1497
I4512
sS'Spencer Fox'
p1498
I318
sS'Jane Lynch'
p1499
I376
sS'June Christopher'
p1500
I849
sS'Sammi Hanratty'
p1501
I8690
sS'Edi Patterson'
p1502
I29526
sS'Cedric the Entertainer'
p1503
I553
sS'Angela Bassett'
p1504
I1029
sS'Dave Foley'
p1505
I1443
sS'Anne Lockhart'
p1506
I9124
sS'Martin Short'
p1507
I851
sS'Roger Narayan'
p1508
I16705
sS'Bruce Dern'
p1509
I1842
sS'Adrien Brody'
p1510
I1053
sS'Elaine Stritch'
p1511
I7945
sS'Loretta Devine'
p1512
I1526
sS'Tyler Abiew'
p1513
I25426
sS'Ava Kramer'
p1514
I11455
sS'Samuel L. Jackson'
p1515
I2
sS'Felicity Kendal'
p1516
I42229
sS'Charles Kimbrough'
p1517
I6203
sS'Dave Mitchell'
p1518
I8014
sS'Mike Nawrocki'
p1519
I40232
sS'Gia Bravos'
p1520
I11465
sS'Paul Greenberg'
p1521
I31747
sS'Donna Lynn Leavy'
p1522
I14832
sS'Justin Fletcher'
p1523
I920
sS'Jane Karen'
p1524
I24484
sS'Tony Fucile'
p1525
I4144
sS'Paula Pell'
p1526
I1729
sS'Cary-Hiroyuki Tagawa'
p1527
I991
sS'Katie Griffin'
p1528
I20119
sS'Billy Connolly'
p1529
I441
sS'Jason Harris'
p1530
I2340
sS'Zack Shada'
p1531
I2505
sS'Christopher Scarabosio'
p1532
Fnan
sS'Halle Berry'
p1533
I245
sS'Bill Hicks'
p1534
Fnan
sS'Harvey Fierstein'
p1535
I1351
sS'Cloris Leachman'
p1536
I1008
sS'Jodi Carlisle'
p1537
I22414
sS'James Arnold Taylor'
p1538
I718
sS'America Ferrera'
p1539
I1807
sS'Tracey Ullman'
p1540
I5261
sS'Teagan Wells'
p1541
I33959
sS'Katie Couric'
p1542
I81
sS'Andrew Cownden'
p1543
I41427
sS'Kevin Nealon'
p1544
I4265
sS'Lisa Loeb'
p1545
I21822
sS'Billy West'
p1546
I2281
sS'Koji Yakusho'
p1547
I795
sS'Tony Curran'
p1548
I2315
sS'Grant George'
p1549
I5621
sS'Keith Blackman Dallas'
p1550
I25412
sS'Kristin Chenoweth'
p1551
I1283
sS'Cree Summer'
p1552
I5342
sS'Matthew Broderick'
p1553
I556
sS'Alex Baker'
p1554
I18091
sS'Hal Holbrook'
p1555
I1376
sS'Candace Hutson'
p1556
I25709
sS'Will.i.am'
p1557
I1046
sS'Wayne Brady'
p1558
I40632
sS'Lauren Bowles'
p1559
I8701
sS'Gus Culligan'
p1560
I5135
sS'Brooks Arthur'
p1561
Fnan
sS'Diane Keaton'
p1562
I175
sS'William Shatner'
p1563
I1027
sS'Ariel Winter'
p1564
I1409
sS'Eg Daily'
p1565
I16690
sS'Martin Freeman'
p1566
I861
sS'Michael Corbett'
p1567
I21628
sS'E.J. Holowicki'
p1568
I5928
sS'Hailey Noelle Johnson'
p1569
I27139
sS'Larry Cedar'
p1570
I17144
sS'Lainie Kazan'
p1571
I2071
sS'Kal Mansoor'
p1572
I16709
sS'Seth Kearsley'
p1573
I37849
sS'David Smith'
p1574
Fnan
sS'Yuriko Yamaguchi'
p1575
I56711
sS'Nika Futterman'
p1576
I8558
sS'Liam Knight'
p1577
I1442
sS'Miriam Margolyes'
p1578
I223
sS'Rachel Stand'
p1579
I3967
sS'Paul Hecht'
p1580
I48156
sS'Earl Boen'
p1581
I1348
sS'Winona Ryder'
p1582
I976
sS'Charles Osgood'
p1583
I9550
sS'Frankie Jonas'
p1584
I14843
sS'Joel Swetow'
p1585
I1172
sS'Teresa Gallagher'
p1586
I4561
sS'Geoffrey Rush'
p1587
I42
sS'Robert Smigel'
p1588
I2383
sS'Dane Cook'
p1589
I8494
sS'John Bentley'
p1590
I3888
sS'Chevy Chase'
p1591
I290
sS'D.B. Sweeney'
p1592
I1922
sS'Geoff Brooks'
p1593
I2220
sS'Romola Garai'
p1594
I9753
sS'Gary Dunn'
p1595
I24495
sS'Santino Fontana'
p1596
Fnan
sS'Sadie Sandler'
p1597
I7419
sS'Lino Disalvo'
p1598
I8623
sS'Steve Williams'
p1599
I23047
sS'Ava Acres'
p1600
I184
sS'Bruce Reitherman'
p1601
I792
sS'Austin Majors'
p1602
I18145
sS'Jeremy Guskin'
p1603
Fnan
sS'Angie Wu'
p1604
I7482
sS'Brittany Murphy'
p1605
I1918
sS'Cristela Alonzo'
p1606
I8170
sS'Casey Masamitsu'
p1607
I31733
sS'Tara Charendoff'
p1608
I19780
sS'John Motson'
p1609
I14811
sS'Julie Andrews'
p1610
I242
sS'Jeffrey Tambor'
p1611
I321
sS'Todd Hansen'
p1612
I5976
sS'Mr. T'
p1613
I6207
sS'Sofia Takal'
p1614
I3816
sS'Steve Susskind'
p1615
I3348
sS'Matt Letscher'
p1616
I7561
sS'Delroy Lindo'
p1617
I679
sS'Joy Behar'
p1618
I2109
sS'Chris Wedge'
p1619
Fnan
sS'Daniel Barker'
p1620
I1500
sS'Mike Schatz'
p1621
I48273
sS'Arnab Chaudri'
p1622
Fnan
sS'Carly Schroeder'
p1623
I4082
sS'Aaron Fors'
p1624
I1662
sS'Wes Studi'
p1625
I159
sS'Bernadette Peters'
p1626
I8556
sS'Tony Haygarth'
p1627
I12293
sS'David Howard'
p1628
Fnan
sS'Corey Feldman'
p1629
I2985
sS'John Travolta'
p1630
I37
sS'Jeff Bennett'
p1631
I1668
sS'David Letterman'
p1632
I30207
sS'Keke Palmer'
p1633
I217
sS'Diedrich Bader'
p1634
I1583
sS'Tracy Morgan'
p1635
I1363
sS'Susan Fitzer'
p1636
I4742
sS'Adam Baldwin'
p1637
I1682
sS'Jason Marin'
p1638
I12543
sS'Rob Clotworthy'
p1639
I15431
sS'Chris Cummins'
p1640
I18098
sS'Saed Andoni'
p1641
Fnan
sS'Common'
p1642
I352
sS'Pip Torrens'
p1643
I432
sS'Josh Uhler'
p1644
I37859
sS'Jeff Gordon'
p1645
I63
sS'Larry King'
p1646
I3
sS'Brenda Blethyn'
p1647
I6104
sS'Martin Scorsese'
p1648
Fnan
sS'Matthew Josten'
p1649
I5625
sS'Milana Haines'
p1650
I25419
sS'Jim Devoti'
p1651
I43495
sS'Lynda Petty'
p1652
I5924
sS'Ricky Gervais'
p1653
I1318
sS'Albert Brooks'
p1654
I237
sS'Alexandra Jourden'
p1655
I3875
sS'Audrey Wasilewski'
p1656
I3271
sS'Billy Dee Williams'
p1657
I919
sS'Charles Adler'
p1658
I39091
sS'David Jolliff'
p1659
I21629
sS'Jai Sloper'
p1660
I16713
sS'Woody Allen'
p1661
Fnan
sS'Alexander Gould'
p1662
I635
sS'Mary Ryan Connell'
p1663
I36959
sS'Romeo Santos'
p1664
I704
sS'Elizabeth Daily'
p1665
I2060
sS'Jennifer Coolidge'
p1666
I574
sS'Stephanie Roux'
p1667
I6
sS'James M. Palumbo'
p1668
Fnan
sS'Orson Welles'
p1669
I12284
sS'Jeremy Piven'
p1670
I845
sS'Shinobu Otake'
p1671
I20501
sS'Donny Osmond'
p1672
I8769
sS"Danielle Mone'Truitt"
p1673
I10540
sS'Alfred Molina'
p1674
I214
sS'Ana de la Reguera'
p1675
I8545
sS'John Cygan'
p1676
I118
sS'Thomas Haden Church'
p1677
I487
sS'Chris Knights'
p1678
Fnan
sS'Elijah Kelley'
p1679
I6244
sS'Lara Cody'
p1680
I21633
sS'Isaac Hempstead-Wright'
p1681
I40986
sS'Paul Giamatti'
p1682
I61
sS'Jane Curtin'
p1683
I4404
sS'Jane Seymour'
p1684
I5371
sS'Georgia Cook'
p1685
I2072
sS'Dashel Eck'
p1686
I16689
sS'Nigel Hawthorne'
p1687
I2696
sS'Jack McGee'
p1688
I608
sS'Octavia Spencer'
p1689
I484
sS'Molly Shannon'
p1690
I695
sS'Simon Callow'
p1691
I2067
sS'Raymond Ochoa'
p1692
I4258
sS'Joan Plowright'
p1693
I1611
sS'Jennifer Lyter'
p1694
I5770
sS'Steve Carell'
p1695
I28
sS'Michel Gondry'
p1696
Fnan
sS'Richard Wilson'
p1697
I14144
sS'Nick Cannon'
p1698
I2190
sS'Rachel Rawlinson'
p1699
I14806
sS'Bruce Campbell'
p1700
I210
sS'Robin Russell'
p1701
I18096
sS'Don Hall'
p1702
Fnan
sS'Evan Rachel Wood'
p1703
I986
sS'Jessie Flower'
p1704
I1942
sS'Guido Quaroni'
p1705
Fnan
sS'Willow Smith'
p1706
I1418
sS'Ken Duario'
p1707
I4765
sS'Hayden Rolence'
p1708
I2096
sS'Stephanie Beatriz'
p1709
I6769
sS"Lucy O'Connell"
p1710
I44680
sS'Joan Cusack'
p1711
I236
sS'David Rawle'
p1712
I2226
sS"Catherine O'Hara"
p1713
I629
sS'Ian Hecox'
p1714
I8168
sS'Chris Parnell'
p1715
I1506
sS'Ben Wilson'
p1716
I18085
sS'Meg Ryan'
p1717
I126
sS'Terence McGovern'
p1718
I16648
sS'April Hong'
p1719
I1443
sS'Wally Wingert'
p1720
I31737
sS'Joss Ackland'
p1721
I6936
sS'Rosanna Arquette'
p1722
I4681
sS'Tucker Albrizzi'
p1723
I8106
sS'Heather Graham'
p1724
I873
sS'Megan Hilty'
p1725
I24870
sS'Hope Levy'
p1726
I6072
sS'Michelle Rodriguez'
p1727
I66
sS'Jon Favreau'
p1728
I51
sS'Isabella Rossellini'
p1729
I7023
sS'Madeleine Rose Yen'
p1730
I20507
sS'Bill Baily'
p1731
I23208
sS'Ken Schretzmann'
p1732
Fnan
sS'Peter Firth'
p1733
I2952
sS'Daisy Ridley'
p1734
I92
sS'Crystal Scales'
p1735
I37120
sS'Madeleine Martin'
p1736
I3957
sS'Suzanne Pleshette'
p1737
I9586
sS'Dan Gordon'
p1738
I36945
sS'Tone Loc'
p1739
I6294
sS'Greg Blackford'
p1740
Fnan
sS'Judy Greer'
p1741
I105
sS'Kodi Smit-McPhee'
p1742
I1289
sS'John Ratzenberger'
p1743
I26
sS'Rif Hutton'
p1744
I10212
sS'Bart McCarthy'
p1745
I4104
sS'Bridget Fonda'
p1746
I5928
sS'Kim Bubbs'
p1747
I9611
sS'Joel Murray'
p1748
I2529
sS'Craig Robinson'
p1749
I2048
sS'Rodrigo Santoro'
p1750
I392
sS'Jerry Tondo'
p1751
I34467
sS'Cyrus Shaki Khan'
p1752
I28100
sS"Daniel James O'Conner"
p1753
I33955
sS'Matt McKenzie'
p1754
I27244
sS'Dave Kramer'
p1755
I24497
sS'Lauren Miller'
p1756
I7270
sS'Peter Pamela Rose'
p1757
I4355
sS'Randall Montgomery'
p1758
I25417
sS'Bryan Callen'
p1759
I1771
sS'Hugh Dancy'
p1760
I4746
sS"De'Lon Grant"
p1761
I4104
sS'Cindy Robinson'
p1762
I36956
sS'Tom Noonan'
p1763
I3767
sS'Showtaro Morikubo'
p1764
Fnan
sS'Rik Michul'
p1765
I21365
sS'Magda Szubanski'
p1766
I1808
sS'Joaquin Raval'
p1767
I8153
sS'Richard E. Grant'
p1768
I1838
sS'Jenifer Lewis'
p1769
I773
sS'Amandla Stenberg'
p1770
I4534
sS'John Goodman'
p1771
I95
sS'Jasmine Guy'
p1772
I23742
sS'Lauri Fraser'
p1773
I10595
sS'Josie Trinidad'
p1774
I830
sS'David Spade'
p1775
I699
sS'Adam Carolla'
p1776
Fnan
sS'Patrick Stewart'
p1777
I136
sS'Imogen Trowell'
p1778
I16707
sS'Ninel Conde'
p1779
Fnan
sS'Ikue Ootani'
p1780
I17486
sS'Jonathan Pryce'
p1781
I210
sS'Michelle Yeoh'
p1782
I1287
sS'Jane Krakowski'
p1783
I1201
sS'Wesley Singerman'
p1784
I15319
sS'Sean Bean'
p1785
I64
sS'Rachel McAdams'
p1786
I163
sS'Pepper Sweeney'
p1787
I6844
sS'Aziz Ansari'
p1788
I1568
sS'Jonathan Kimmel'
p1789
I23044
sS'Miles Richardson'
p1790
I14807
sS'Larry Miller'
p1791
I817
sS'Amanda Kaplan'
p1792
I9134
sS"Paige O'Hara"
p1793
I424
sS'Jackie Chan'
p1794
I81
sS'Mary Costa'
p1795
I46122
sS'Jeffrey Wright'
p1796
I85
sS'Stephen Root'
p1797
I71
sS'Jorge R. Gutierrez'
p1798
I23261
sS'Joel Edgerton'
p1799
I615
sS'Colin Decker'
p1800
I25415
sS'Yo Oizumi'
p1801
I45100
sS'Rob Buckman'
p1802
I52639
sS'Jennifer Lopez'
p1803
I172
sS'Diego Luna'
p1804
I2904
sS'Sigourney Weaver'
p1805
I139
sS'Drake'
p1806
I2448
sS'Jack Willis'
p1807
I1422
sS'Bob Joles'
p1808
I2724
sS'Gracie Poletti'
p1809
I17721
sS'Nicole Oliver'
p1810
I20106
sS'Blaze Berdahl'
p1811
I42227
sS'Jordan Prosser'
p1812
I16717
sS'Andie MacDowell'
p1813
I2221
sS'Maya Kay'
p1814
I36963
sS'Greg Germann'
p1815
I2019
sS'Dhimant Vyas'
p1816
I22495
sS'Connor Anderson'
p1817
I3983
sS'Judge Reinhold'
p1818
I1404
sS'Scott Mosier'
p1819
Fnan
sS'Blake Anderson'
p1820
I4525
sS'Jean Rochefort'
p1821
I2135
sS'Betty White'
p1822
I2127
sS'April Warren'
p1823
I33963
sS'Michael J. Fox'
p1824
I110
sS'Jordan Nagai'
p1825
I269
sS'Teruyuki Kagawa'
p1826
I27761
sS'Sam Green'
p1827
I31734
sS'Madeline Kahn'
p1828
I2402
sS'John A. Davis'
p1829
Fnan
sS'John Rhys-Davies'
p1830
I139
sS'Sam Lavagnino'
p1831
I11464
sS'Michael Ralph'
p1832
I16687
sS'Cullen McCarthy'
p1833
I4077
sS'Freddie Prinze, Jr.'
p1834
I3532
sS'Susan Silo'
p1835
I30709
sS'Matthew Wood'
p1836
Fnan
sS'Soon-Tek Oh'
p1837
I5778
sS'James Stewart'
p1838
I11670
sS'Bob Hoskins'
p1839
I753
sS'Hal Smith'
p1840
I5331
sS'Emily Mortimer'
p1841
I688
sS'Brad Kane'
p1842
I391
sS'Michael-Leon Wooley'
p1843
I3278
sS'Sarah Jessica Parker'
p1844
I1100
sS'Mary Steenburgen'
p1845
I842
sS'Ginnifer Goodwin'
p1846
I1228
sS'Jack Riley'
p1847
I9173
sS'Pat Shortt'
p1848
I38453
sS'Elmarie Wendel'
p1849
I8012
sS'Michael Bell'
p1850
I9397
sS'Brian Lonsdale'
p1851
I26142
sS'T.J. Miller'
p1852
I109
sS'Simon Abkarian'
p1853
I3341
sS'Mickey Rooney'
p1854
I1690
sS'Cassius Romero'
p1855
I48362
sS'Jim Sturgess'
p1856
I821
sS'Sacha Baron Cohen'
p1857
I169
sS'Robbie Rist'
p1858
I41543
sS'Ryan Teeple'
p1859
I8400
sS'J.K. Simmons'
p1860
I44
sS'Jared Bush'
p1861
I1883
sS'Rie Kugimiya'
p1862
I49195
sS'LL Cool J'
p1863
I2653
sS'Jillian Bell'
p1864
I2357
sS'Brad Bird'
p1865
Fnan
sS'Armin Shimerman'
p1866
I40000
sS'Frances Conroy'
p1867
I2106
sS'James Coburn'
p1868
I1010
sS'Alexandra Romano'
p1869
I2446
sS'Denis Leary'
p1870
I253
sS'Daniel Gerson'
p1871
Fnan
sS'Bruce Willis'
p1872
I17
sS'Lillian Groag'
p1873
I16710
sS'Sakiko Tamagawa'
p1874
I49198
sS'Roman Coppola'
p1875
Fnan
sS'Sarah Mensinga'
p1876
I31746
sS'Keegan-Michael Key'
p1877
I757
sS'Rachel Crow'
p1878
I5384
sS'Christopher Mintz-Plasse'
p1879
I1474
sS'Scott Adsit'
p1880
I3605
sS'John Leguizamo'
p1881
I112
sS'Eric Bauza'
p1882
I6718
sS'Jeremy Suarez'
p1883
I6169
sS'Keith Carradine'
p1884
I11625
sS'Sergio Mendes'
p1885
I5380
sS'Malcolm McDowell'
p1886
I2027
sS'Jason Bryden'
p1887
I25400
sS'Damon Wayans Jr.'
p1888
I1946
sS'Mark Miller'
p1889
I24496
sS'Will Collyer'
p1890
I16692
sS'J. D. Donaruma'
p1891
I17145
sS'Samuel Black'
p1892
I5131
sS'Erik von Detten'
p1893
I872
sS'George Takei'
p1894
I3203
sS'Dana Hill'
p1895
I31489
sS'Francisco Ramos'
p1896
I25409
sS'Torbin Xan Bullock'
p1897
I2097
sS'Vincent Pastore'
p1898
I4798
sS'Dominique Barneaud'
p1899
Fnan
sS'Marc-Andre Grondin'
p1900
I43087
sS'King Kedar'
p1901
I25404
sS'Anne Coesens'
p1902
I48194
sS'Steve Alterman'
p1903
I2936
sS'Luis Guzman'
p1904
I486
sS'Mary Gross'
p1905
I4741
sS'John C. Reilly'
p1906
I425
sS'Timothy Dalton'
p1907
I999
sS'Andrea Tivadar'
p1908
Fnan
sS'Lombardo Boyar'
p1909
I8140
sS'Hidetoshi Nishijima'
p1910
I20508
sS'Karan Brar'
p1911
I8171
sS'Wilber Zaldivar'
p1912
I5757
sS'Tim Curry'
p1913
I752
sS'Tommy Schooler'
p1914
I18101
sS'Zac Efron'
p1915
I159
sS'Robby Benson'
p1916
I414
sS'Tate Donovan'
p1917
I4167
sS'Kathy Burke'
p1918
I5866
sS'Anjelah Johnson-Reyes'
p1919
I23259
sS'Mageina Tovah'
p1920
I18093
sS'David Kramer'
p1921
I3961
sS'Kelly Michelle Mills'
p1922
I11452
sS'Francesca Smith'
p1923
I12668
sS'Harriet Owen'
p1924
I23159
sS'Mandy Freund'
p1925
I8403
sS'Joseph Izzo'
p1926
I1444
sS'William H. Macy'
p1927
I633
sS'Tom Hollander'
p1928
I201
sS'Roger Blin'
p1929
I51261
sS'Roy Conli'
p1930
Fnan
sS'Scott Holst'
p1931
I31732
sS'Jesse Eisenberg'
p1932
I219
sS'Luenell Campbell'
p1933
I2662
sS'Sean Donnellan'
p1934
I5895
sS'Junichi Okada'
p1935
I1136
sS'Ray Magliozzi'
p1936
I90
sS'Anthony LaPaglia'
p1937
I2357
sS'Dana Gaier'
p1938
I2074
sS'Anjelah N. Johnson'
p1939
I4859
sS'Kevin Booth'
p1940
I1025
sS'Sumire Morohoshi'
p1941
I45105
sS'Jonathan Cook'
p1942
I31748
sS'Ike Barinholtz'
p1943
I2322
sS'Rene Mujica'
p1944
I9122
sS'Mike Starr'
p1945
I1381
sS'Karissa Corday'
p1946
I16723
sS'Brad Garrett'
p1947
I57
sS'Andy Samberg'
p1948
I2518
sS'Kate Harbour'
p1949
I22494
sS'Debra Messing'
p1950
I4402
sS'Rip Taylor'
p1951
I78
sS'Kaitlin Olson'
p1952
I1248
sS'Omar Chaparro'
p1953
Fnan
sS'Marisa Tomei'
p1954
I410
sS'Brian Donovan'
p1955
I31813
sS'Tress MacNeille'
p1956
I1581
sS'Chris Bradford'
p1957
I25425
sS'Angela Lansbury'
p1958
I2135
sS'Shakira '
p1959
I1885
sS'Gary Sinise'
p1960
I361
sS'Dwight Howard'
p1961
I21367
sS'Vanessa Williams'
p1962
I3706
sS'Cheryl Hines'
p1963
I5738
sS'Phil Hayes'
p1964
I27136
sS'Wendy Cutler'
p1965
I3984
sS'Randy Trager'
p1966
I11447
sS'Gabrielle Lopes'
p1967
Fnan
sS'Annick Obonswin'
p1968
I20121
sS'Mia Farrow'
p1969
I5368
sS'Sirena Irwin'
p1970
I6050
sS'Lee Pace'
p1971
I123
sS'Austin Stout'
p1972
I37851
sS'Maleah Nipay Padilla'
p1973
I8398
sS'David Alan Grier'
p1974
I1869
sS'Danny Glover'
p1975
I308
sS'Gillian Anderson'
p1976
I4281
sS'Rupert Everett'
p1977
I350
sS'Steve Googan'
p1978
I2078
sS'Robert Patrick'
p1979
I455
sS'Roy Conrad'
p1980
I19413
sS'Raymond Mearns'
p1981
I43932
sS'Hannah Noyes'
p1982
I21637
sS'Peter Stormare'
p1983
I267
sS'Thomas F. Wilson'
p1984
I2022
sS'Chris Sanders'
p1985
Fnan
sS'Demi Moore'
p1986
I121
sS'Paul Sorvino'
p1987
I3711
sS'Jason Bertsch'
p1988
I3872
sS'Cobie Smulders'
p1989
I149
sS'Kappei Yamaguchi'
p1990
I45104
sS'Ronnie Screwvala'
p1991
Fnan
sS'Yumi Mizui'
p1992
I3954
sS'John Michael Higgins'
p1993
I386
sS'Michael Patrick Bell'
p1994
I1663
sS'George Carlin'
p1995
I2858
sS'Randy Newman'
p1996
Fnan
sS'Susan Dudeck'
p1997
Fnan
sS'Jesse Corti'
p1998
I1042
sS'Peter Scolari'
p1999
I6971
sS'Tom Connolly'
p2000
I43490
sS'Marianne Bennett'
p2001
I33952
sS'John Huston'
p2002
I13446
sS'Ali Wong'
p2003
I6402
sS'Donald Sutherland'
p2004
I123
sS'Tammy Grimes'
p2005
I43464
sS'Helena Bonham Carter'
p2006
I153
sS'Brad Paisley'
p2007
I16906
sS'Max Mitchell'
p2008
I21139
sS"Joey D' Auria"
p2009
I27137
sS'Javier Fernandez-Pena'
p2010
I1716
sS'Maxie Santillan'
p2011
I18094
sS'Neil Ross'
p2012
I2933
sS'Sam Palladio'
p2013
I29472
sS'Andy Serkis'
p2014
I10
sS'Frank Marshall'
p2015
Fnan
sS'Katherine Ringgold'
p2016
I2095
sS'Eddie Frierson'
p2017
I2090
sS'Dick Van Dyke'
p2018
I1751
sS'Paula Poundstone'
p2019
I2664
sS'Beyonce Knowles'
p2020
I381
sS'Karey Kirkpatrick'
p2021
Fnan
sS'David Stanfield'
p2022
I25410
sS'Lee Perry'
p2023
I16703
sS'Jennifer Darling'
p2024
I710
sS'Jessica Capshaw'
p2025
I39354
sS'Andrew Birch'
p2026
I25788
sS'Tony Hale'
p2027
I1566
sS'John Finnegan'
p2028
I11148
sS'Evan Mehta'
p2029
I21641
sS'Jimmy Bennett'
p2030
I1896
sS'Susan Sarandon'
p2031
I150
sS'David Soren'
p2032
I4320
sS'Kerry Hoyt'
p2033
I6974
sS'Angus Maclane'
p2034
I2099
sS'Bridin Ni Mhaoldomhnaigh'
p2035
I36964
sS"La'Ren Kimble"
p2036
I5746
sS'Chris Renaud'
p2037
I364
sS'Eddie Sotelo'
p2038
I1322
sS'Dan Castellaneta'
p2039
I992
sS'Adrienne Barbeau'
p2040
I5212
sS'Rip Torn'
p2041
I810
sS'Richard McGonagle'
p2042
I12688
sS'Andrea Martin'
p2043
I2294
sS'James Avery'
p2044
I1289
sS'Andre Sogliuzzo'
p2045
I6300
sS'Debbie Reynolds'
p2046
I3704
sS'Daniel Villeneuve'
p2047
Fnan
sS'Dave Thomas'
p2048
I6566
sS'Ashley Eckstein'
p2049
I1131
sS'Stephen Lang'
p2050
I340
sS'Sarah Freeman'
p2051
I7565
sS'Rick Moranis'
p2052
I1160
sS'Kenneth Branagh'
p2053
I1064
sS'Paul Shardlow'
p2054
I14804
sS'Matt Levin'
p2055
I7779
sS'Tom Kenny'
p2056
I3795
sS'Zoe Sidel'
p2057
I43497
sS'Kate del Castillo'
p2058
I16793
sS'Ellen DeGeneres'
p2059
I101
sS'Mark Kennedy'
p2060
Fnan
sS'Chie Nakamura'
p2061
Fnan
sS'Christopher Chen'
p2062
I27131
sS'Ale Abreu'
p2063
Fnan
sS'Daniel Mays'
p2064
I3168
sS'Terry Crews'
p2065
I1259
sS'Seiko Yoshida'
p2066
I28806
sS'Harrison Fahn'
p2067
I3965
sS'Asher Blinkoff'
p2068
Fnan
sS'Ken Samson'
p2069
I30996
sS'Darrell Waltrip'
p2070
I1881
sS'Roger Blake'
p2071
I7746
sS'Elizabeth Pena'
p2072
I1977
sS'Craig Berry'
p2073
I5320
sS'Maryke Hendrikse'
p2074
I20110
sS'Diane Lane'
p2075
I212
sS'Sarah Gadon'
p2076
I1563
sS'Jack Paulson'
p2077
I22498
sS'Eric Anderson'
p2078
I32235
sS'Callum Blue'
p2079
I5253
sS'David Burrows'
p2080
I5970
sS'Jadon Sand'
p2081
I5975
sS'Pitbull'
p2082
Fnan
sS'Rene Auberjonois'
p2083
I1856
sS'John Ritter'
p2084
I9368
sS'Jessica Chastain'
p2085
I308
sS'Emily Blunt'
p2086
I180
sS'Ivo Nandi'
p2087
I16706
sS'Matt Lucas'
p2088
I586
sS'Lindsey Collins'
p2089
Fnan
sS'Francois Jerosme'
p2090
I37372
sS'Mel Blanc'
p2091
I8756
sS'G K Bowes'
p2092
I36946
sS"Rickey D'Shon Collins"
p2093
I34119
sS'Mandy Steckelberg'
p2094
I27143
sS'Gordon Tootoosis'
p2095
I7337
sS'Fay Masterson'
p2096
I6269
sS'Vincent Cassel'
p2097
I613
sS'Bridgit Mendler'
p2098
I784
sS'Jonathan Groff'
p2099
I4585
sS'Clay Kaytis'
p2100
I8167
sS'Tobin Bell'
p2101
I3124
sS'Jake Goldberg'
p2102
I31726
sS'Pierce Brosnan'
p2103
I314
sS'Justin Timberlake'
p2104
I1249
sS'Sig Hansen'
p2105
I65
sS'Amanda Fein'
p2106
I3897
sS'Denise Faye'
p2107
I4358
sS'Matthew Wolf'
p2108
I5752
sS'Francois Damiens'
p2109
I1090
sS'Jeremy Irons'
p2110
I409
sS'Craig Bartlett'
p2111
I44439
sS'Jim Broadbent'
p2112
I71
sS'Spencer Lacey Ganus'
p2113
I3974
sS'Hideaki Anno'
p2114
I857
sS'Travis Oates'
p2115
Fnan
sS'Holly Klein'
p2116
I21639
sS'Clea Lewis'
p2117
I2833
sS'Idina Menzel'
p2118
Fnan
sS'Cole Sand'
p2119
I875
sS'Maurissa Horwitz'
p2120
I14151
sS'Kelly Dugan'
p2121
I37850
sS'Charlie Bright'
p2122
I1717
sS'Danny Carey'
p2123
I21369
sS'Brad Pitt'
p2124
I26
sS'Graham Chapman'
p2125
I35290
sS'Colin Hay'
p2126
I23046
sS"Peter O'Toole"
p2127
I1257
sS'Miranda Richardson'
p2128
I492
sS'Cole Sprouse'
p2129
I35193
sS'Bernardo de Paula'
p2130
I4439
sS'Michael Crawford'
p2131
I43990
sS'Garry Marshall'
p2132
Fnan
sS'Chris Colfer'
p2133
I20346
sS'Bugs Hartley'
p2134
I24485
sS'Joey King'
p2135
I1921
sS'Tina Fey'
p2136
I480
sS'Tim Kirkpatrick'
p2137
I3979
sS'Jim Cummings'
p2138
I91
sS'Amber Kroner'
p2139
I1718
sS'Jimmy Leung'
p2140
I3952
sS'Jean Simmons'
p2141
I10879
sS'Duncan MacNeil'
p2142
I43931
sS'Junko Takeuchi'
p2143
Fnan
sS'Marieve Harrington'
p2144
Fnan
sS'William Wunsch'
p2145
I11435
sS'Leiki Veskimets'
p2146
I5966
sS'Steve Buscemi'
p2147
I113
sS'Dylan Naber'
p2148
I11459
sS'Helen Mirren'
p2149
I475
sS'Josh Cooley'
p2150
I918
sS"Rosie O'Donnell"
p2151
I1303
sS'Maury Sterling'
p2152
I2112
sS'Jonathan Harris'
p2153
I2524
sS'George Sanders'
p2154
I12353
sS'Garth Jennings'
p2155
I32224
sS'Brett Lloyd'
p2156
I24492
sS'Emar Xor Ona'
p2157
I2964
sS'Anika Noni Rose'
p2158
I16402
sS'Wanda Sykes'
p2159
I686
sS'Amy Irving'
p2160
I5220
sS'Stephen Fry'
p2161
I232
sS'Rebel Wilson'
p2162
Fnan
sS'Graylen Cameron'
p2163
I25401
sS'Jason Connery'
p2164
Fnan
sS'Amy Sedaris'
p2165
I470
sS'Ernie Hudson'
p2166
I1171
sS'Sarah Clark'
p2167
I5927
sS'Antonio Banderas'
p2168
I116
sS'Vishal Shekhar'
p2169
Fnan
sS'Russell Tovey'
p2170
I10550
sS'David Johndrow'
p2171
I1026
sS'McNally Sagal'
p2172
I16400
sS'Elizabeth Hartman'
p2173
I45755
sS'Bernie Van De Yacht'
p2174
Fnan
sS'Huell Howser'
p2175
Fnan
sS'Julius Callahan'
p2176
I4145
sS'Kiely Renaud'
p2177
I2844
sS'Willie Geist'
p2178
I5138
sS'Jessica Ellen Cornish'
p2179
Fnan
sS'Tom Hulce'
p2180
I2324
sS'Lou Romano'
p2181
I1704
sS'Judi Dench'
p2182
I96
sS'Jacob Bertrand'
p2183
I21635
sS'Nick Nolte'
p2184
I505
sS'Bob Costas'
p2185
I5266
sS'Laurie Metcalf'
p2186
I404
sS'David Shaughnessy'
p2187
I3946
sS'Christian Slater'
p2188
I1524
sS'Caroline Aaron'
p2189
I3808
sS'Cheech Marin'
p2190
I296
sS'Spencer Locke'
p2191
I4417
sS'Albert Medina'
p2192
I51257
sS'Carlos Alazraqui'
p2193
I128
sS'Chris Ayres'
p2194
I1202
sS'Melissa Rauch'
p2195
I6783
sS'Velibor Topic'
p2196
I2245
sS'Oriane Zani'
p2197
I2731
sS'Jim Byrnes'
p2198
I41199
sS'David Thewlis'
p2199
I102
sS'Tony Goldwyn'
p2200
I674
sS'Joaquin Phoenix'
p2201
I837
sS'Erik Schaper'
p2202
I33960
sS'Danielle Harris'
p2203
I3003
sS'Chopper Bernet'
p2204
I21738
sS'Tony Shalhoub'
p2205
I265
sS'Dara McGarry'
p2206
I9135
sS'Dempsey Pappion'
p2207
I8015
sS'Denzel Whitaker'
p2208
I13208
sS'Katherine Heigl'
p2209
I223
sS'Marley Pearson'
p2210
I11468
sS'Don Knotts'
p2211
I5520
sS'Zahara Jolie Pitt'
p2212
I5133
sS'Christopher Lloyd'
p2213
I606
sS'Romy Rosemont'
p2214
I480
sS'Holly Dorff'
p2215
I2720
sS'Vincent Oswald'
p2216
I8154
sS'Phyllis Diller'
p2217
I7594
sS'Nicole Sullivan'
p2218
I12627
sS'Billy Gilbert'
p2219
I14529
sS'Scott Weinger'
p2220
I390
sS'Aube Foglia'
p2221
Fnan
sS'Natalie Strom'
p2222
I14504
sS'Michael Horse'
p2223
I21737
sS'Reed Buck'
p2224
I3953
sS'Nick Frost'
p2225
I694
sS'Mamoru Miyano'
p2226
I44679
sS'Alec Holden'
p2227
I43498
sS'Jennifer Aniston'
p2228
I107
sS'Karen Disher'
p2229
I2439
sS'Kerry Michele'
p2230
I27134
sS'Anastasia Bredikhina'
p2231
I11437
sS'Adam DeVine'
p2232
I1328
sS'James Ladmirault'
p2233
I1020
sS'Miori Takimoto'
p2234
I20504
sS'John Farneti'
p2235
I1019
sS'Ian Holm'
p2236
I93
sS'Jessica Alba'
p2237
I231
sS'Rick Mayall'
p2238
I27842
sS'Sonje Fortag'
p2239
I8907
sS'Martin Landau'
p2240
I2227
sS'Stephen Tobolowsky'
p2241
I506
sS'Ian McKellen'
p2242
I113
sS'Andrew Stanton'
p2243
Fnan
sS'Roger Craig Smith'
p2244
I11821
sS'Karen Duffy'
p2245
I9547
sS'Paddi Edwards'
p2246
I12544
sS'Peter Sallis'
p2247
I681
sS'Timothy Olyphant'
p2248
I1069
sS'Warren Coleman'
p2249
Fnan
sS'Kathleen Turner'
p2250
I401
sS'Miriam Wallen'
p2251
I5389
sS'Lee Arenberg'
p2252
I470
sS'Kazuhiro Yamaji'
p2253
I45101
sS'Nickolai Stoilov'
p2254
I2076
sS'Grey Delisle'
p2255
I3606
sS'Kevin Kline'
p2256
I833
sS'Kyle MacLachlan'
p2257
I1711
sS'Mandy Haines'
p2258
I25413
sS'Bob Einstein'
p2259
I9047
sS'Casey Affleck'
p2260
I478
sS'Peter Jason'
p2261
I5727
sS'Melissa Charles'
p2262
I52486
sS'Emily Johnson'
p2263
I23049
sS'Rachel Saydak'
p2264
I5745
sS'Shane Richie'
p2265
I710
sS'Ian Hanlin'
p2266
I20107
sS'Cate Blanchett'
p2267
I87
sS'Richard Ayoade'
p2268
Fnan
sS'Angelica Maria'
p2269
I23263
sS'Andrew McDonough'
p2270
I2219
sS'Micah Revelli'
p2271
I11466
sS'Takehito Koyasu'
p2272
I56710
sS'Dick Miller'
p2273
I2346
sS'Marcella Lentz-Pope'
p2274
I3944
sS'Ciaran Hinds'
p2275
I95
sS'Jeremy Leary'
p2276
I3338
sS'Bouli Lanners'
p2277
I48157
sS'Lloyd Kaufman'
p2278
Fnan
sS'Nick Offerman'
p2279
I368
sS'Katherine Helmond'
p2280
I2115
sS'Lance Henriksen'
p2281
I979
sS'Chris Rock'
p2282
I174
sS'Dave Mallow'
p2283
I51812
sS'Scott Menville'
p2284
I5265
sS'Lloyd Sherr'
p2285
I4563
sS'Christopher Lee'
p2286
I37
sS'Kristen Bell'
p2287
I5953
sS'Jonathan Brandis'
p2288
I6741
sS'Brian Cox'
p2289
I214
sS'Spencer Klein'
p2290
I44417
sS'Judah Friedlander'
p2291
I417
sS'Luke Wilson'
p2292
I996
sS'Joshua Seth'
p2293
I18095
sS'Guy Faulkner'
p2294
I24481
sS'Sammy Davis, Jr.'
p2295
I21853
sS'Sandy Fox'
p2296
Fnan
sS'Elie Docter'
p2297
I3337
sS'Conner Rayburn'
p2298
I4105
sS'Robert Bailey, Jr.'
p2299
I9851
sS'Lisa Stewart'
p2300
Fnan
sS'Bella Laudiero'
p2301
I8156
sS'Dennis Haysbert'
p2302
I747
sS'Michael Richards'
p2303
I6795
sS'Daamen Krall'
p2304
I6285
sS'Adrian Bouchet'
p2305
I5401
sS'D.P. Fitzgerald'
p2306
I18097
sS'Kari Wahlgren'
p2307
I1430
sS'Mel Gibson'
p2308
I45
sS'Joseph Lawrence'
p2309
I28841
sS'Sean Connolly'
p2310
I22490
sS'Lynwood Robinson'
p2311
I3948
sS'Drew Barrymore'
p2312
I108
sS'Sean Astin'
p2313
I301
sS'Jim Carrey'
p2314
I25
sS'Paul Reubens'
p2315
I995
sS'Sam Lerner'
p2316
I16920
sS'B J Oakie'
p2317
I38493
sS'Philip Lawrence Qualmann'
p2318
I5390
sS'Chris McKay'
p2319
I5971
sS'Frank Welker'
p2320
I3
sS'Steve Kehela'
p2321
I4149
sS'Claudia Christian'
p2322
Fnan
sS'Mark Allan Stewart'
p2323
I11822
sS'Ben Stiller'
p2324
I53
sS'Rich Moore'
p2325
Fnan
sS'Kareena Kapoor'
p2326
I687
sS'Flea'
p2327
I1066
sS'Saverio Guerra'
p2328
I8455
sS'Jamie Bell'
p2329
I1165
sS'Julie Walters'
p2330
I25
sS'Garvin Cross'
p2331
I12804
sS'Michelle Murdocca'
p2332
Fnan
sS'Maggie Smith'
p2333
I30
sS'Sebastian Cabot'
p2334
I18117
sS'Adriana Caselotti'
p2335
I699
sS'Gad Elmaleh'
p2336
I7181
sS'Russell Brand'
p2337
I752
sS'Olivia Hack'
p2338
I44438
sS'Steven Rales'
p2339
Fnan
sS'Zhang Ziyi'
p2340
I286
sS'Placido Domingo'
p2341
I11170
sS'Curtis Armstrong'
p2342
I2915
sS'Billy Crudup'
p2343
I1186
sS'Pat Corley'
p2344
I21000
sS'Zachary Levi'
p2345
I1382
sS'Rosann Nerenberg'
p2346
Fnan
sS'Bobby Block'
p2347
I2227
sS'Peter Gerety'
p2348
I4324
sS'Fred Gwynne'
p2349
I4669
sS'Michael Chiklis'
p2350
I2640
sS'Gideon Emery'
p2351
I4109
sS'Paris Van Dyke'
p2352
I2663
sS'Francesca Angelucci Capaldi'
p2353
I11448
sS'Jay Thomas'
p2354
I6202
sS'Gabriel Damon'
p2355
I25711
sS'Veronica Taylor'
p2356
I17487
sS'Phil Collins'
p2357
I164
sS'Minnie Driver'
p2358
I1132
sS'Michaelle Ruff'
p2359
I24487
sS'Kevin W. Keane'
p2360
I5386
sS'Barry Levinson'
p2361
Fnan
sS'Michael Keaton'
p2362
I168
sS'Kyle J. Bogert'
p2363
I3962
sS'Oliver Platt'
p2364
I397
sS'Kevin Bigley'
p2365
I8169
sS'Mackenzie Crook'
p2366
I197
sS'Kiernan Shipka'
p2367
I20790
sS'B.D. Wong'
p2368
I318
sS'Mandy Patinkin'
p2369
I5834
sS'Marcus Scribner'
p2370
I8404
sS'Eric Idle'
p2371
I1534
sS'Greg Ellis'
p2372
I93
sS'Scott Bakula'
p2373
I4640
sS'Racheal Lillis'
p2374
I17488
sS'Benjamin Smith'
p2375
I43995
sS'Mark Hamill'
p2376
I407
sS'Christopher Plummer'
p2377
I345
sS'Tommy Karlsen'
p2378
I5425
sS'Richard Jenkins'
p2379
I206
sS'Harry Connick, Jr.'
p2380
I1435
sS'Jaleel White'
p2381
I39923
sS'Rihanna'
p2382
I313
sS'Michelle Pfeiffer'
p2383
I133
sS'Atticus Shaffer'
p2384
Fnan
sS'Bill Erwin'
p2385
I3938
sS'Jim Breuer'
p2386
I13355
sS'Rick Wasserman'
p2387
I36950
sS'Bronson Pinchot'
p2388
I2389
sS'Colin Metzger'
p2389
Fnan
sS'Bill Pullman'
p2390
I441
sS'Emily Osment'
p2391
I7097
sS'Kevin McKidd'
p2392
I4527
sS'Philip Proctor'
p2393
I19754
sS'Richard Linklater'
p2394
Fnan
sS'Ed Harris'
p2395
I267
sS'Blayne Weaver'
p2396
I23156
sS'Piotr Michael'
p2397
I36949
sS'Jose Zelaya'
p2398
I18089
sS'Jun Kunimura'
p2399
I4659
sS'Mario Guerra'
p2400
I48334
sS'Paul Bandey'
p2401
I43930
sS'Ali Hoffman'
p2402
I37853
sS'Joseph Bologna'
p2403
I2691
sS'Eileen Marra'
p2404
I8166
sS'Burt Reynolds'
p2405
I1045
sS'Daryl Sabara'
p2406
I1923
sS'Kenneth Mars'
p2407
I5910
sS'Sylvain Bellemare'
p2408
Fnan
sS'Robert Beltran'
p2409
I14489
sS'Chris Pratt'
p2410
I2743
sS'Tom Baker'
p2411
I39606
sS'Carrie Paff'
p2412
I8401
sS'Claudia Besso'
p2413
I3658
sS'Paul Whitehouse'
p2414
I476
sS'Hank Azaria'
p2415
I191
sS'John Mainieri'
p2416
I4254
sS'Kotono Mitsuishi'
p2417
I30278
sS'Bella Thorne'
p2418
I5968
sS'Don Cherry'
p2419
I23053
sS'Douglas Weston'
p2420
I14809
sS'Steven Tyler'
p2421
I8504
sS'Barry Otto'
p2422
I4503
sS'Jay Baruchel'
p2423
I1246
sS'Eddie Izzard'
p2424
I725
sS'Matthew Fold Holt'
p2425
I21625
sS'Greg Tiernan'
p2426
Fnan
sS'Ronan Farrow'
p2427
I20505
sS'Keith Alcorn'
p2428
I31729
sS'Eve Karpf'
p2429
I1501
sS'Keith Anthony'
p2430
I23054
sS'Catherine McCormack'
p2431
I6178
sS'Ray Liotta'
p2432
I866
sS'Declan Swift'
p2433
I4319
sS'Priyanka Chopra'
p2434
I1568
sS'Kathy Najimy'
p2435
I1578
sS'James Kevin Ward'
p2436
I275
sS'Nicole Munoz'
p2437
I25414
sS'Jared Goldsmith'
p2438
I31730
sS'Sarah Michelle Gellar'
p2439
I1900
sS'Robin Wright'
p2440
I552
sS'Jason Isaacs'
p2441
I35
sS'Elizabeth Dampier'
p2442
I10532
sS'Phil Daniels'
p2443
I12291
sS'James Sie'
p2444
I3498
sS'Helen Shaver'
p2445
I12754
sS'Josh Gad'
p2446
I1602
sS'Aketza Lopez'
p2447
I36952
sS'John Farley'
p2448
I5449
sS'Paige Gosney'
p2449
I2122
sS'Charles Rocket'
p2450
I3434
sS'Jamielisa Jacquemin'
p2451
I52640
sS'Ava Tartakovsky'
p2452
I5755
sS'Haley Joel Osment'
p2453
I1101
sS'Bobby Moynihan'
p2454
I650
sS'David Suchet'
p2455
I8327
sS'Ken Hudson Campbell'
p2456
I3043
sS'Jonas Rivera'
p2457
Fnan
sS'Greg Berg'
p2458
I6721
sS'Chris Williams'
p2459
I1329
sS'Michael Pe??a'
p2460
I307
sS'Bradley Trevor Greive'
p2461
I2217
sS'Scott Digs Underwood'
p2462
I20109
sS'Helen McCrory'
p2463
I146
sS'Vinicius Garcia'
p2464
I2972
sS'Felipe Zilse'
p2465
I48358
sS'Rob Schneider'
p2466
I455
sS'Hannah Williams'
p2467
I23043
sS'Kenji Utsumi'
p2468
I49194
sS'Steve Hicks'
p2469
I23355
sS'April M. Lawrence'
p2470
I7108
sS'Niketa Calame'
p2471
I2036
sS'Kelsey Rootenberg'
p2472
I21627
sS'Della Saba'
p2473
I1884
sS'James Kee'
p2474
I20117
sS'Graham MacDonald'
p2475
I25402
sS'Billy Bob Thornton'
p2476
I538
sS'Lari Friedman'
p2477
I37848
sS'Juliette Brewer'
p2478
I41545
sS'Lena Golia'
p2479
I1441
sS'Steve Oedekerk'
p2480
I13175
sS'Megan Mullally'
p2481
I2275
sS'Clayton Drier'
p2482
I11451
sS'Cameron Cowles'
p2483
I25416
sS'Joey Camen'
p2484
I37633
sS'Louis Prima'
p2485
I18119
sS'Norm Crosby'
p2486
I37861
sS'Stephen Merchant'
p2487
I6871
sS'James S. Baker'
p2488
I2225
sS'Tom Kane'
p2489
I13219
sS'Hailee Steinfeld'
p2490
I596
sS'Mike Dragovic'
p2491
I51743
sS'Marlon Wayans'
p2492
I1145
sS'Signe Baumane'
p2493
I136
sS'Sita Steele'
p2494
I51741
sS'Imelda Staunton'
p2495
I96
sS'Miley Cyrus'
p2496
I497
sS'Liz Smith'
p2497
I3615
sS'Jonathan Nicholas'
p2498
I24483
sS'Paul Thornley'
p2499
I874
sS'Chris Evans'
p2500
I12
sS'Steve Valentine'
p2501
I3904
sS'Mela Lee'
p2502
I36947
sS'Dwight Slade'
p2503
I1022
sS'Adam Jastrow'
p2504
I11469
sS'John Gielgud'
p2505
I3178
sS'Noah Schnapp'
p2506
I608
sS'Steve Zahn'
p2507
I619
sS'Sally Kellerman'
p2508
I11130
sS'Shia LaBeouf'
p2509
I88
sS'Fumihiko Tachiki'
p2510
I56712
sS'Mae Whitman'
p2511
I1268
sS'Zach Callison'
p2512
I7072
sS'Max Greenfield'
p2513
I4539
sS'Mike Nelson'
p2514
I5929
sS'Americo Simonini'
p2515
Fnan
sS'Steve Blum'
p2516
I4421
sS'Jared Sandler'
p2517
I2070
sS'Christian Argueta'
p2518
I23041
sS'Chris Miller'
p2519
Fnan
sS'Sandra Searles Dickinson'
p2520
I41546
sS'Cameron Diaz'
p2521
I13
sS'Dempsey Stiller'
p2522
I4316
sS'Emerson Tenney'
p2523
I11816
sS'Tim Hands'
p2524
Fnan
sS'Christopher Miller'
p2525
Fnan
sS'Phil Vischer'
p2526
I40235
sS'John Mahoney'
p2527
I2081
sS'Cuba Gooding, Jr.'
p2528
I444
sS'Jana Sandler'
p2529
I25745
sS'Neil Patrick Harris'
p2530
I639
sS'Zachary Gordon'
p2531
I4140
sS'Sam Fell'
p2532
Fnan
sS'Bernie Mac'
p2533
I386
sS'Adrian Ochoa'
p2534
I5925
sS'Treva Etienne'
p2535
I2877
sS'Terence Blanchard'
p2536
Fnan
sS'Eugenio Derbez'
p2537
I6804
sS'Sumi Shimamoto'
p2538
I19004
sS'James T. Muir'
p2539
I43927
sS'Macintalk'
p2540
I4984
sS'Jeremy Baumann'
p2541
I51744
sS'Amy Green'
p2542
I32185
sS'Kevin Hart'
p2543
I4111
sS'Mary Jo Catlett'
p2544
I6058
sS'Jack Palance'
p2545
I3633
sS'Christopher Fairbank'
p2546
I243
sS'Kelly MacDonald'
p2547
I712
sS'Mark Walton'
p2548
I520
sS'Ray Winstone'
p2549
I345
sS'Noriaki Sugiyama'
p2550
Fnan
sS'Catherine Taber'
p2551
I15423
sS'Ron Rogge'
p2552
I7863
sS'Keith Coogan'
p2553
I15892
sS'Debi Derryberry'
p2554
I83
sS'Will Arnett'
p2555
I165
sS'Christopher Attadia'
p2556
I25423
sS'Rose Abdoo'
p2557
I2273
sS'Maurice Benichou'
p2558
I16109
sS'Emeril Lagasse'
p2559
I10534
sS'Anthony Padilla'
p2560
I8151
sS'Rebecca Bloom'
p2561
I11445
sS'Dominic Scott Kay'
p2562
I11567
sS'Iris Apatow'
p2563
I14091
sS'Jean Reno'
p2564
I628
sS"Ed O'Neill"
p2565
I930
sS'Jamil Walker Smith'
p2566
I44440
sS'J.P. Manoux'
p2567
I6251
sS'Chris Edgerly'
p2568
I6720
sS'Katie Lowes'
p2569
I769
sS'Pablo Ramirez'
p2570
I5387
sS'Stacy Keach'
p2571
I1315
sS'Venus Schultheis'
p2572
I11463
sS'Nicolas Cage'
p2573
I23
sS'Rhea Perlman'
p2574
I25796
sS'Carol Burnett'
p2575
I5223
sS'Ryan Kwanten'
p2576
I1510
sS'Gerard Greisbaum'
p2577
I18090
sS"Colm O'Snodaigh"
p2578
I44682
sS'Eugene Levy'
p2579
I293
sS'Charles Shaughnessy'
p2580
I20670
sS'Jenny Slate'
p2581
I693
sS'David Stifel'
p2582
I12636
sS'Veena Bidasha'
p2583
I16702
sS'Adam Brown'
p2584
I211
sS'Cheryl Chase'
p2585
I10575
sS'Alain Chabat'
p2586
I2343
sS'Jake T. Austin'
p2587
I767
sS'Louis Gossett Jr.'
p2588
I7041
sS'S. Scott Bullock'
p2589
I31736
sS'Edward James Olmos'
p2590
I4155
sS'Eli Russell Linnetz'
p2591
I15433
sS'Joshua Rush'
p2592
I7006
sS'Meredith Wells'
p2593
I8699
sS'Kelly Ripa'
p2594
I30200
sS'Kelly Asbury'
p2595
Fnan
sS'Joe Pingue'
p2596
I2310
sS'Kelly Kriegshauser'
p2597
I51745
sS'Christine Cavanaugh'
p2598
I10259
sS'Amanda Plummer'
p2599
I1458
sS'Fumiko Orikasa'
p2600
I49193
sS'Martin Lawrence'
p2601
I937
sS'Linda Larkin'
p2602
I392
sS'Brian Dobson'
p2603
I20102
sS'Ian McShane'
p2604
I312
sS'Andrea Corr'
p2605
I456
sS'Jonathan Adams'
p2606
I11819
sS'Ian James Corlett'
p2607
I20112
sS'Susie Essman'
p2608
I7443
sS'David Ossman'
p2609
I7595
sS'Jessica Gee-George'
p2610
I5769
sS'Eddie Deezen'
p2611
I3354
sS'Richard Mulligan'
p2612
I21494
sS'LuLu Ebeling'
p2613
I2218
sS'Lynn Ferguson'
p2614
I12292
sS'Carmen Filpi'
p2615
I13425
sS'Emma Hudak'
p2616
I2665
sS'Robert Cait'
p2617
I7288
sS'Jeremy Shipp'
p2618
I3873
sS'Garry Shandling'
p2619
I390
sS'Michael Scovotti'
p2620
I43494
sS'Liza Lapira'
p2621
I4348
sS'Doug E. Doug'
p2622
I4627
sS'Jake Steinfeld'
p2623
I2001
sS'Brian D. Johnson'
p2624
I43493
sS'Randall Duk Kim'
p2625
I548
sS'Doug Stone'
p2626
I38495
sS'Benjamin Whitrow'
p2627
I12120
sS'David Tennant'
p2628
I1710
sS'Lesley Nicol'
p2629
I21361
sS'Joseph Gordon-Levitt'
p2630
I146
sS'Geena Davis'
p2631
I2030
sS'Alessandro Juliani'
p2632
I3751
sS'Sarah Silverman'
p2633
I2425
sS'Terrence Howard'
p2634
I714
sS'Sofia Scarpa Saldanha'
p2635
I5378
sS'Nicole DeFelice'
p2636
I3973
sS'Eric Bana'
p2637
I191
sS'Elle Fanning'
p2638
I828
sS'Daniel Cohen'
p2639
Fnan
sS'Marilu Henner'
p2640
I22857
sS'Seth Dusky'
p2641
I33962
sS'Joe Lo Truglio'
p2642
I2787
sS'Jon Hamm'
p2643
I1262
sS'Ralph Fiennes'
p2644
I23
sS'Jim Ward'
p2645
I4220
sS'Emily Bridges'
p2646
I31666
sS'Kimberly Brooks'
p2647
I27133
sS'Kirsten Severson'
p2648
I33964
sS'Mackenzie Foy'
p2649
I420
sS'Monica Rial'
p2650
I29792
sS'Ashleigh Ludwig'
p2651
I14805
sS'Elijah Chiang'
p2652
I28102
sS'Colin Firth'
p2653
I324
sS'Kat Cressida'
p2654
I24490
sS'Noam Chomsky'
p2655
I1121
sS'Ricardo Sanchez'
p2656
I23265
sS'Jon Heder'
p2657
I6369
sS'Hisaya Morishige'
p2658
I19001
sS'Monica Guzman'
p2659
I16699
sS'Randolph Jones'
p2660
I18086
sS"Dennis O'Connor"
p2661
I38497
sS'Jon Kenny'
p2662
I44681
sS'Ben Kingsley'
p2663
I135
sS'Kevin Spacey'
p2664
I425
sS'Danny Pardo'
p2665
I16905
sS'Geoffrey Arend'
p2666
I6519
sS'Megumi Takamoto'
p2667
I49196
sS'Matt Adler'
p2668
I24488
sS'Chris Kattan'
p2669
I4787
sS'Sean Penn'
p2670
I1109
sS'Gary Martin'
p2671
I1492
sS'Haru Kuroki'
p2672
I45102
sS'Jacqueline Obradors'
p2673
I13146
sS'Zooey Deschanel'
p2674
I1744
sS'Stan Sandler'
p2675
I37855
sS'Dana Carvey'
p2676
I1194
sS'Abbie Cornish'
p2677
I3923
sS'Michael Colyar'
p2678
I9988
sS'Keenan Wynn'
p2679
I11578
sS"Ed O'Ross"
p2680
I4157
sS'Martha Plimpton'
p2681
I12348
sS'Jeff Goldblum'
p2682
I254
sS'Billy Crystal'
p2683
I647
sS'Erica Yohn'
p2684
I21456
sS'Caroline Kindred'
p2685
I2224
sS'Nathan Lane'
p2686
I715
sS'Harland Williams'
p2687
I1107
sS'Estelle Harris'
p2688
I1060
sS'Robert De Niro'
p2689
I30
sS'Anders Matteson'
p2690
I48821
sS'Edie McClurg'
p2691
I434
sS'Pete Docter'
p2692
Fnan
sS'Zahn McClarnon'
p2693
I21739
sS'Sean Connery'
p2694
I460
sS'Pat Morita'
p2695
I4217
sS'Adrienne de Faria'
p2696
Fnan
sS'Dan Whitney'
p2697
I343
sS'Phil LaMarr'
p2698
I473
sS'Michael Strahan'
p2699
I5073
s.