(dp1
S'Jessica Ellen Cornish'
p2
I289
sS'Kazuhiko Inoue'
p3
I2076
sS'Greg Blackford'
p4
I2038
sS'Christopher Miller'
p5
I136
sS'Dominique Cote'
p6
I228
sS'Woody Allen'
p7
I116
sS'Heather Morris'
p8
I1452
sS'David Acord'
p9
I59
sS'Laila Berzins'
p10
I1357
sS'Sam Fell'
p11
I350
sS'Carlos Espejel'
p12
I1367
sS'Barry Levinson'
p13
I80
sS'Rob Coleman'
p14
I1
sS'Melanie Lasnier'
p15
I475
sS'Karey Kirkpatrick'
p16
I89
sS'Chiara Mastroianni'
p17
I1288
sS'Idina Menzel'
p18
I30
sS'Bill Fagerbakke'
p19
I372
sS'Phil Johnston'
p20
I76
sS'Steven Clay Hunter'
p21
I3
sS'Richard Ayoade'
p22
I1769
sS'Richard Petty'
p23
I247
sS'Nick Park'
p24
I320
sS'Carlos Saldanha'
p25
I21
sS'Amer Shomali'
p26
I4876
sS'Werner Herzog'
p27
I1144
sS'Noriaki Sugiyama'
p28
I2078
sS'David Bowers'
p29
I353
sS'Chris Romano'
p30
I4653
sS'Chris Knights'
p31
I316
sS'Gwendolyn Yates Whittle'
p32
I11
sS'Atticus Shaffer'
p33
I881
sS'Bill Hicks'
p34
I218
sS'Daniel Villeneuve'
p35
I2050
sS'Raman Hui'
p36
I7
sS'Stephen Anderson'
p37
I501
sS'Colin Metzger'
p38
I1359
sS'Douglas Urbanski'
p39
I1326
sS'Wes Anderson'
p40
I312
sS'Maite Perroni'
p41
I1369
sS'Matthew Wood'
p42
I9
sS'Dominique Louis'
p43
I159
sS'Christopher Scarabosio'
p44
I26
sS'Brad Bird'
p45
I39
sS'Kristen Anderson-Lopez'
p46
I7
sS'Matt Maiellaro'
p47
I920
sS'Meredith Anne Bull'
p48
I1544
sS'Daniel Gerson'
p49
I49
sS'Aube Foglia'
p50
I2443
sS'Bruno Bichir'
p51
I1364
sS'Guido Quaroni'
p52
I1
sS'Mark Kennedy'
p53
I5
sS'Chie Nakamura'
p54
I2077
sS'Liam Mulvey'
p55
I2041
sS'Christine Rochelau'
p56
I1507
sS'Asher Blinkoff'
p57
I231
sS'Frank Marshall'
p58
I5
sS'Alain Gagnol'
p59
I3281
sS'Wyatt Dean Hall'
p60
I1091
sS'Sylvain Bellemare'
p61
I917
sS'Emily Barclay'
p62
I689
sS'Andrew Stanton'
p63
I9
sS'Michelle Murdocca'
p64
I215
sS'Kelly Asbury'
p65
I101
sS'Annemie Degryse'
p66
I1823
sS'Dane A. Davis'
p67
I28
sS'Jean-Loup Felicioli'
p68
I2515
sS'Brooks Arthur'
p69
I16
sS'Warren Coleman'
p70
I358
sS'Ron Howard'
p71
I12
sS'Jesse Tyler Ferguson'
p72
I286
sS'Michel Gondry'
p73
I357
sS'Dominique Barneaud'
p74
I6481
sS'Don Hall'
p75
I211
sS'Angelica Vale'
p76
I1366
sS'Ken Schretzmann'
p77
I42
sS'Nana Mizuki'
p78
I2081
sS'Ben Burtt'
p79
I4
sS'Wolfgang Reitherman'
p80
I543
sS'Andrea Tivadar'
p81
I2040
sS'Adam Carolla'
p82
I3356
sS'Brad Lewis'
p83
I290
sS'Allison Abbate'
p84
I796
sS'Greg Tiernan'
p85
I689
sS'Jacques-Remy Girerd'
p86
I3834
sS'David Smith'
p87
I69
sS'Jeremy Dawson'
p88
I713
sS'John A. Davis'
p89
I618
sS'Sarah Aubrey'
p90
I447
sS'Lea Michele'
p91
I601
sS'Terence Blanchard'
p92
I95
sS'Tristan Oliver'
p93
I154
sS'Pitbull'
p94
I416
sS'Al Nelson'
p95
I15
sS'Dan Fogelman'
p96
I53
sS'Dan Molina'
p97
I215
sS'Satoshi Hino'
p98
I2080
sS'Mamoru Oshii'
p99
I2305
sS'Steven Rales'
p100
I1198
sS'Lloyd Kaufman'
p101
I4939
sS'Elton John'
p102
I4
sS'James Hiroyuki Liao'
p103
I882
sS'Santino Fontana'
p104
I28
sS'Travis Oates'
p105
I3577
sS'Charlie Day'
p106
I104
sS'Jeremy Guskin'
p107
I2510
sS'Ale Abreu'
p108
I2947
sS'Vivian Schilling'
p109
I2383
sS'Craig Ferguson'
p110
I32
sS'Jonas Rivera'
p111
I128
sS'Ronnie Screwvala'
p112
I872
sS'Peter Ackerman'
p113
I115
sS'Jonny Solomon'
p114
I232
sS'Yuri Lowenthal'
p115
I1338
sS'Showtaro Morikubo'
p116
I2079
sS'Facundo '
p117
I1368
sS'Tim Mertens'
p118
I65
sS'Paul Cowan'
p119
I5115
sS'Sandy Fox'
p120
I1360
sS'John Morris'
p121
I126
sS'Blu Murray'
p122
I52
sS'Richard Linklater'
p123
I413
sS'Lisa Stewart'
p124
I353
sS'Omar Chaparro'
p125
I1174
sS'Hiroyuki Yamashita'
p126
I1461
sS'Byron Howard'
p127
I49
sS'Garry Marshall'
p128
I57
sS'Chris Wedge'
p129
I44
sS'Colette Loumede'
p130
I6479
sS'Roman Coppola'
p131
I1499
sS'John Cohen'
p132
I262
sS'Gary Trousdale'
p133
I148
sS'Ninel Conde'
p134
I1365
sS'Claudia Christian'
p135
I540
sS'Lindsey Collins'
p136
I167
sS'Gabrielle Lopes'
p137
I1294
sS'E. Thomas Ewing'
p138
I5099
sS'David Howard'
p139
I1355
sS'Cee Lo Green'
p140
I290
sS'Randy Newman'
p141
I21
sS'Sergio Sendel'
p142
I1363
sS'Steve Bencich'
p143
I309
sS'Eric Darnell'
p144
I32
sS'Junko Takeuchi'
p145
I2075
sS'Marieve Harrington'
p146
I1356
sS'Myriam Elda Arsenault'
p147
I229
sS'Vishal Shekhar'
p148
I456
sS'Catherine Winder'
p149
I480
sS'Tim Hands'
p150
I158
sS'Michelle Lannen'
p151
I230
sS'Guillaume Aretos'
p152
I33
sS'Rich Moore'
p153
I31
sS'Roy Conli'
p154
I153
sS'Rebel Wilson'
p155
I98
sS'Andrew Adamson'
p156
I27
sS'Ester Dean'
p157
I293
sS'Bernie Van De Yacht'
p158
I411
sS'James M. Palumbo'
p159
I117
sS'Peter De Seve'
p160
I4
sS'Jean Cocteau'
p161
I4256
sS'Rob Minkoff'
p162
I46
sS'Brian Morris'
p163
I126
sS'Bernadette Lafont'
p164
I1681
sS'Chris Sanders'
p165
I85
sS'Tom McGrath'
p166
I36
sS'Phil Morris'
p167
I537
sS'Benoit Charest'
p168
I529
sS'Randy Thom'
p169
I2
sS'Mike Judge'
p170
I814
sS'Jason Connery'
p171
I7986
sS'Kevin Grady'
p172
I31
sS'Annett Mahendru'
p173
I317
sS'Daniel Cohen'
p174
I1676
sS'Pete Docter'
p175
I9
sS'Martin Scorsese'
p176
I41
sS'Robert Ben Garant'
p177
I486
sS'Arnab Chaudri'
p178
I4614
sS'Ina Fichman'
p179
I5174
sS'Brian Herskowitz'
p180
I5804
sS'Rosann Nerenberg'
p181
I939
sS'Americo Simonini'
p182
I2382
sS'Adrienne de Faria'
p183
I690
sS'Susan Dudeck'
p184
I82
sS'German Gutierrez'
p185
I1487
sS'Huell Howser'
p186
I1092
sS'Saed Andoni'
p187
I6480
sS'Mark Dindal'
p188
I286
sS'Chris Miller'
p189
I68
sS'Scott Mosier'
p190
I752
s.