ccollections
defaultdict
p1
(c__builtin__
list
p2
tRp3
S'Leonard Nimoy'
p4
(lp5
I1993
aI1997
asS'Donald Sutherland'
p6
(lp7
I1996
asS'Butch Patrick'
p8
(lp9
I2000
asS'Jan Hooks'
p10
(lp11
I1998
aI1999
aI2000
aI2000
aI2001
aI2002
asS'Lisa Lampanelli'
p12
(lp13
I2013
asS'Suzanne Somers'
p14
(lp15
I1996
asS'Gene Tenace'
p16
(lp17
I2006
asS'Hugh Hefner'
p18
(lp19
I1993
asS'Tommy Chong'
p20
(lp21
I2011
asS'Shepard Fairey'
p22
(lp23
I2012
asS'Brendan Fraser'
p24
(lp25
I1998
asS'Nick Park'
p26
(lp27
I2011
asS'Benedict Cumberbatch'
p28
(lp29
I2013
asS'Werner Herzog'
p30
(lp31
I2011
asS'Susan Sarandon'
p32
(lp33
I1995
aI2005
asS'David Hyde Pierce'
p34
(lp35
I1997
aI2007
aI2014
asS'Channing Tatum'
p36
(lp37
I2013
asS'Don Pardo'
p38
(lp39
I2010
aI2012
asS'Jim Forbes'
p40
(lp41
I2000
asS'Andrea Martin'
p42
(lp43
I1998
asS'Natalie Portman'
p44
(lp45
I2007
aI2012
asS'Daniel Radcliffe'
p46
(lp47
I2010
aI2013
asS'Robert Evans'
p48
(lp49
I2000
asS'Eva Longoria'
p50
(lp51
I2013
asS'Gary Coleman'
p52
(lp53
I2000
aI2000
aI2001
asS'Jonah Hill'
p54
(lp55
I2009
asS'Stephen Colbert'
p56
(lp57
I2007
asS'Kevin Dillon'
p58
(lp59
I2011
asS'Chick Hearn'
p60
(lp61
I1992
asS'Nick Bakay'
p62
(lp63
I2004
asS'Parker Posey'
p64
(lp65
I2000
asS'Ken Levine'
p66
(lp67
I1991
asS'Brooke Shields'
p68
(lp69
I1993
asS'Jane Kaczmarek'
p70
(lp71
I2001
aI2001
aI2003
aI2003
aI2004
aI2004
aI2007
aI2010
asS'LeBron James'
p72
(lp73
I2004
asS'Marvin Hamlisch'
p74
(lp75
I2012
asS"Nancy O'Dell"
p76
(lp77
I2000
asS'Ellen DeGeneres'
p78
(lp79
I2010
asS'Paul Willson'
p80
(lp81
I1990
asS'Ricky Jay'
p82
(lp83
I2011
asS'Anderson Cooper'
p84
(lp85
I2013
asS'Patrick McGoohan'
p86
(lp87
I2000
asS'Buzz Aldrin'
p88
(lp89
I1994
asS'Ashley Olsen'
p90
(lp91
I2004
asS'Peter Sagal'
p92
(lp93
I2014
asS'Helen Fielding'
p94
(lp95
I2003
asS'Elizabeth Taylor'
p96
(lp97
I1993
aI1993
asS'Will Forte'
p98
(lp99
I2014
asS'Kirk Douglas'
p100
(lp101
I1996
asS'Janeane Garofalo'
p102
(lp103
I1998
aI2011
asS'Daryl Coley'
p104
(lp105
I1991
asS'Bret McKenzie'
p106
(lp107
I2010
asS'David Lander'
p108
(lp109
I2002
asS'Anne Bancroft'
p110
(lp111
I1995
asS'Neil Gaiman'
p112
(lp113
I2011
asS'Mandy Moore'
p114
(lp115
I2006
asS'Gordon Ramsay'
p116
(lp117
I2011
asS'Jerry Springer'
p118
(lp119
I1999
asS'David Herman'
p120
(lp121
I2014
asS'John DiMaggio'
p122
(lp123
I2005
aI2014
asS'Lawrence Tierney'
p124
(lp125
I1996
asS'Harlan Ellison'
p126
(lp127
I2013
asS'Zach Galifianakis'
p128
(lp129
I2013
asS'Michael Jackson'
p130
(lp131
I1992
asS'Emily Blunt'
p132
(lp133
I2008
asS'Robert A. Caro'
p134
(lp135
I2013
asS'James Caan'
p136
(lp137
I2004
asS'Joshua Jackson'
p138
(lp139
I2000
asS'Ringo Starr'
p140
(lp141
I1991
asS'Neve Campbell'
p142
(lp143
I2009
asS'Alec Baldwin'
p144
(lp145
I1999
aI2005
asS'Kiefer Sutherland'
p146
(lp147
I2006
aI2007
aI2011
asS'Robert Pinsky'
p148
(lp149
I2002
asS'Maurice LaMarche'
p150
(lp151
I1995
aI2005
aI2006
aI2006
aI2006
aI2007
aI2007
aI2007
aI2007
aI2008
aI2008
aI2008
aI2009
aI2010
aI2011
aI2012
aI2012
aI2013
aI2013
aI2013
aI2014
aI2014
asS'Michael Paul Chan'
p152
(lp153
I2010
asS'Peyton Manning'
p154
(lp155
I2009
asS'Richard Lewis'
p156
(lp157
I2006
asS'Johnny Unitas'
p158
(lp159
I1995
asS'Richard Dean Anderson'
p160
(lp161
I2005
asS'Pierce Brosnan'
p162
(lp163
I2001
asS'Peter Bogdanovich'
p164
(lp165
I2007
asS'Dick Cavett'
p166
(lp167
I1995
asS'Elon Musk'
p168
(lp169
I2014
asS'Greg Berg'
p170
(lp171
I1991
asS'Jeremy Irons'
p172
(lp173
I2011
asS'David Duchovny'
p174
(lp175
I1997
asS'Ken Griffey, Jr.'
p176
(lp177
I1992
asS'Terry Cashman'
p178
(lp179
I1992
asS'Cat Deeley'
p180
(lp181
I2015
asS'Bob Newhart'
p182
(lp183
I1996
asS'Michael McKean'
p184
(lp185
I1992
aI1999
asS'Dennis Rodman'
p186
(lp187
I2005
asS'Kim Cattrall'
p188
(lp189
I2004
aI2009
asS'Tina Fey'
p190
(lp191
I2013
asS'Fantasia Barrino'
p192
(lp193
I2005
asS'Warren Sapp'
p194
(lp195
I2004
asS'Stephen Sondheim'
p196
(lp197
I2007
asS'Charles Napier'
p198
(lp199
I2001
aI2003
aI2004
aI2004
asS'Melanie Griffith'
p200
(lp201
I2006
asS'Ira Glass'
p202
(lp203
I2010
asS'Robert Englund'
p204
(lp205
I1998
asS'Al Roker'
p206
(lp207
I2012
asS'Terry Gross'
p208
(lp209
I2008
asS'Jay Leno'
p210
(lp211
I1998
asS'Mary-Kate Olsen'
p212
(lp213
I2004
asS'Kurt Loder'
p214
(lp215
I2007
asS'Jennifer Garner'
p216
(lp217
I2003
asS'Will Lyman'
p218
(lp219
I2013
asS'Troy Aikman'
p220
(lp221
I1999
asS'Garry Marshall'
p222
(lp223
I2000
aI2011
asS'Anne Hathaway'
p224
(lp225
I2008
aI2009
aI2012
asS'Aaron Paul'
p226
(lp227
I2013
asS'Frank Gehry'
p228
(lp229
I2004
asS'Christina Ricci'
p230
(lp231
I1996
asS'Sally Stevens'
p232
(lp233
I1996
aI1996
aI2002
asS'Fred Armisen'
p234
(lp235
I2012
asS'Jackson Browne'
p236
(lp237
I2003
asS'Jim Cummings'
p238
(lp239
I2000
asS'Robert Goulet'
p240
(lp241
I1994
asS'Art Spiegelman'
p242
(lp243
I2007
asS'Jim Gilstrap'
p244
(lp245
I2003
aI2006
asS'Gillian Anderson'
p246
(lp247
I1997
asS'Jose Canseco'
p248
(lp249
I1992
asS'Larry Holmes'
p250
(lp251
I2002
asS"Pat O'Brien"
p252
(lp253
I2000
asS'Kelsey Grammer'
p254
(lp255
I1990
aI1992
aI1993
aI1994
aI1996
aI1997
aI2001
aI2002
aI2005
aI2007
aI2008
aI2010
aI2012
aI2012
aI2013
aI2014
aI2014
asS'Shohreh Aghdashloo'
p256
(lp257
I2008
asS'Katey Sagal'
p258
(lp259
I2014
asS'Tom Hanks'
p260
(lp261
I2015
asS'James Brown'
p262
(lp263
I1994
asS'Matthew Weiner'
p264
(lp265
I2011
asS'Phil Hartman'
p266
(lp267
I1991
aI1991
aI1991
aI1992
aI1992
aI1992
aI1992
aI1992
aI1992
aI1992
aI1992
aI1993
aI1993
aI1993
aI1993
aI1993
aI1993
aI1993
aI1993
aI1994
aI1994
aI1994
aI1994
aI1994
aI1994
aI1994
aI1994
aI1995
aI1995
aI1995
aI1995
aI1995
aI1995
aI1995
aI1995
aI1996
aI1996
aI1996
aI1996
aI1996
aI1996
aI1996
aI1996
aI1996
aI1997
aI1997
aI1998
aI1998
aI1998
aI1998
aI1998
aI1998
asS'Sammy Hagar'
p268
(lp269
I2014
asS'Lauren Tom'
p270
(lp271
I2014
asS'Ray Romano'
p272
(lp273
I2005
asS'Huell Howser'
p274
(lp275
I2009
asS'Maggy Reno Hurchalla'
p276
(lp277
I2013
asS'Mark McGwire'
p278
(lp279
I1999
asS'Kim Basinger'
p280
(lp281
I1999
asS'Michael Keaton'
p282
(lp283
I2001
asS'Dan Marino'
p284
(lp285
I1999
asS'Diana Tanaka'
p286
(lp287
I1991
asS'Nichelle Nichols'
p288
(lp289
I2004
asS'Bob Costas'
p290
(lp291
I2009
asS'Liam Neeson'
p292
(lp293
I2005
asS'Angela Bassett'
p294
(lp295
I2009
asS'Steve Martin'
p296
(lp297
I1998
asS'Cheech Marin'
p298
(lp299
I2011
asS'James Patterson'
p300
(lp301
I2007
asS'Jodie Foster'
p302
(lp303
I2009
asS'Roy Firestone'
p304
(lp305
I1997
asS'Patton Oswalt'
p306
(lp307
I2012
asS'Andy Garc?a'
p308
(lp309
I2011
asS'Bette Midler'
p310
(lp311
I1993
asS'Gary Busey'
p312
(lp313
I2004
asS'Kareem Abdul-Jabbar'
p314
(lp315
I2011
asS'Jon Stewart'
p316
(lp317
I2007
asS'Will Shortz'
p318
(lp319
I2008
asS'Andre Agassi'
p320
(lp321
I2001
asS'Sal Bando'
p322
(lp323
I2006
asS'Joyce Brothers'
p324
(lp325
I1993
asS'Hank Williams, Jr.'
p326
(lp327
I1998
asS'Regis Philbin'
p328
(lp329
I1999
asS'Bobcat Goldthwait'
p330
(lp331
I1998
asS'Cooper Manning'
p332
(lp333
I2009
asS'Tom Wolfe'
p334
(lp335
I2006
asS'Tito Puente'
p336
(lp337
I1995
aI1995
asS'Dave Thomas'
p338
(lp339
I1997
aI2005
asS'Nicholas McKaig'
p340
(lp341
I2012
asS'Carl Kasell'
p342
(lp343
I2014
asS'Don Cheadle'
p344
(lp345
I2000
asS'Edward Asner'
p346
(lp347
I1999
asS'Aron Ralston'
p348
(lp349
I2011
asS'Jay Mohr'
p350
(lp351
I2000
asS'David Byrne'
p352
(lp353
I2003
aI2012
asS'Lucy Lawless'
p354
(lp355
I1999
asS'Ben Schatz'
p356
(lp357
I2003
asS'Steve Sax'
p358
(lp359
I1992
asS'Chuck Liddell'
p360
(lp361
I2009
asS'Hugh Laurie'
p362
(lp363
I2010
asS'Jeff Bezos'
p364
(lp365
I2008
asS'Harvey Fierstein'
p366
(lp367
I1991
asS'Robert Forster'
p368
(lp369
I2008
asS'Cloris Leachman'
p370
(lp371
I1991
asS'George Wendt'
p372
(lp373
I1995
asS'Tracey Ullman'
p374
(lp375
I1991
asS'Gerry Cooney'
p376
(lp377
I1994
asS'Sam Neill'
p378
(lp379
I1994
asS'Johnny Carson'
p380
(lp381
I1993
asS'Brent Spiner'
p382
(lp383
I2012
asS'Billy West'
p384
(lp385
I2014
asS'Steven Weber'
p386
(lp387
I1998
asS'Treat Williams'
p388
(lp389
I2012
asS'Ken Burns'
p390
(lp391
I2011
aI2012
asS'Nick Offerman'
p392
(lp393
I2014
asS'James Earl Jones'
p394
(lp395
I1991
aI1995
aI1998
asS'Roger Clemens'
p396
(lp397
I1992
asS'Johnny Cash'
p398
(lp399
I1997
asS'Martin Landau'
p400
(lp401
I2011
asS'Ian McKellen'
p402
(lp403
I2003
asS'David Mamet'
p404
(lp405
I2011
asS'Tom Savini'
p406
(lp407
I2001
asS'Steve Coogan'
p408
(lp409
I2012
asS'James Lipton'
p410
(lp411
I2002
aI2010
asS'Kathleen Turner'
p412
(lp413
I1994
asS'Michael York'
p414
(lp415
I2005
asS'Edwin Moses'
p416
(lp417
I2014
asS'Pamela Reed'
p418
(lp419
I1993
aI1994
aI2003
asS'Jack Burns'
p420
(lp421
I1999
asS'Shawn Colvin'
p422
(lp423
I2000
aI2001
asS'Jim Jarmusch'
p424
(lp425
I2008
asS'Fred Turner'
p426
(lp427
I2000
asS'Lona Williams'
p428
(lp429
I1992
aI1993
asS'Philip Rosenthal'
p430
(lp431
I2015
asS'Adam Savage'
p432
(lp433
I2012
asS'Amy Tan'
p434
(lp435
I2000
asS'Paul McGuinness'
p436
(lp437
I1998
asS'Daniel Clowes'
p438
(lp439
I2007
asS'Lea Michele'
p440
(lp441
I2010
asS'Jonathan Taylor Thomas'
p442
(lp443
I2003
asS'Bill Saluga'
p444
(lp445
I2002
asS'Kipp Lennon'
p446
(lp447
I1992
asS'Winona Ryder'
p448
(lp449
I1994
asS'Little Richard'
p450
(lp451
I2003
asS'Lance Armstrong'
p452
(lp453
I2008
asS'Martha Stewart'
p454
(lp455
I2010
asS'Michael Moore'
p456
(lp457
I2003
asS'Pete Sampras'
p458
(lp459
I2001
asS'Tony Hawk'
p460
(lp461
I2003
asS'Elton John'
p462
(lp463
I1999
asS'Robert Wagner'
p464
(lp465
I2004
asS'Joe Montana'
p466
(lp467
I2008
asS'Judith Owen'
p468
(lp469
I2001
asS'Isabel Sanford'
p470
(lp471
I2004
asS'John Kassir'
p472
(lp473
I1999
aI2002
aI2003
asS'Kimmy Robertson'
p474
(lp475
I1992
asS'John Slattery'
p476
(lp477
I2011
asS'Joe Pantoliano'
p478
(lp479
I2006
asS'Linda Ronstadt'
p480
(lp481
I1993
asS'Steven Wright'
p482
(lp483
I1998
asS'Linda McCartney'
p484
(lp485
I1996
asS'Bob Denver'
p486
(lp487
I1998
asS'Jane Fonda'
p488
(lp489
I2014
asS'Sarah Silverman'
p490
(lp491
I2009
aI2012
aI2014
asS'Anika Noni Rose'
p492
(lp493
I2012
asS'Matt Groening'
p494
(lp495
I2004
aI2009
asS'Tom Poston'
p496
(lp497
I1991
asS'Mr. T'
p498
(lp499
I2003
asS'Maria Grazia Cucinotta'
p500
(lp501
I2005
asS'Fred Willard'
p502
(lp503
I1999
asS'Pl?cido Domingo'
p504
(lp505
I2007
asS'Delroy Lindo'
p506
(lp507
I2001
asS'Michael Cera'
p508
(lp509
I2011
asS'Mel Gibson'
p510
(lp511
I1999
asS'Maya Rudolph'
p512
(lp513
I2007
asS'Terry Bradshaw'
p514
(lp515
I2005
asS'Drew Barrymore'
p516
(lp517
I2000
asS'Richard Branson'
p518
(lp519
I2015
asS'Kid Rock'
p520
(lp521
I2000
asS'Jack Lemmon'
p522
(lp523
I1997
asS'Britney Spears'
p524
(lp525
I2000
asS'Cyndi Lauper'
p526
(lp527
I1999
asS'Keone Young'
p528
(lp529
I1999
asS'J. B. Smoove'
p530
(lp531
I2011
asS'Frank Welker'
p532
(lp533
I1991
aI1992
aI1992
aI1994
aI1994
aI1994
aI1995
aI1996
aI1997
aI1997
aI1997
aI1999
aI1999
aI2000
aI2000
aI2000
aI2000
aI2001
aI2001
aI2002
aI2014
asS'Jack Sheldon'
p534
(lp535
I1996
asS'Keith Richards'
p536
(lp537
I2002
asS'Topher Grace'
p538
(lp539
I2008
asS'Woody Harrelson'
p540
(lp541
I1995
asS'Don Hertzfeldt'
p542
(lp543
I2014
asS'David Letterman'
p544
(lp545
I2011
asS'Ben Stiller'
p546
(lp547
I2002
asS'Oscar De La Hoya'
p548
(lp549
I2003
asS'Paul Rudd'
p550
(lp551
I2011
aI2013
asS'Diedrich Bader'
p552
(lp553
I2000
asS'Penn Jillette'
p554
(lp555
I2000
aI2011
asS'Randy Jackson'
p556
(lp557
I2010
asS'Dick Tufeld'
p558
(lp559
I1999
aI2004
asS'Stephen Hawking'
p560
(lp561
I1999
aI2005
aI2007
aI2010
asS'Jennifer Tilly'
p562
(lp563
I2012
asS'Amber Riley'
p564
(lp565
I2010
asS'Tom Brady'
p566
(lp567
I2004
asS'Karen Maruyama'
p568
(lp569
I1997
aI1999
asS'Russell Brand'
p570
(lp571
I2011
asS'Mike Judge'
p572
(lp573
I1997
asS'Denice Kumagai'
p574
(lp575
I1997
aI1999
asS'Rich Sommer'
p576
(lp577
I2015
asS'Jeff Gordon'
p578
(lp579
I2012
asS'Larry King'
p580
(lp581
I1991
aI1995
asS'J. K. Rowling'
p582
(lp583
I2003
asS'Fran Drescher'
p584
(lp585
I2006
asS'James Woods'
p586
(lp587
I1994
asS'John Madden'
p588
(lp589
I1999
asS'Drew Carey'
p590
(lp591
I2008
asS'Ricky Gervais'
p592
(lp593
I2005
aI2011
asS'Albert Brooks'
p594
(lp595
I1990
aI1990
aI1994
aI1996
aI2005
aI2011
aI2015
aI2015
asS'Bill Hader'
p596
(lp597
I2013
asS'Richard Gere'
p598
(lp599
I2001
asS'Bryan Cranston'
p600
(lp601
I2012
aI2013
asS'Dan Rather'
p602
(lp603
I2007
asS'Jack Ong'
p604
(lp605
I1998
asS'Thomas Pynchon'
p606
(lp607
I2004
aI2004
asS'Alan Moore'
p608
(lp609
I2007
asS'James Taylor'
p610
(lp611
I1994
asS'Jon Hamm'
p612
(lp613
I2010
asS'Simon Cowell'
p614
(lp615
I2004
aI2010
asS'Pharrell Williams'
p616
(lp617
I2014
asS'Jack LaLanne'
p618
(lp619
I1999
asS'Willem Dafoe'
p620
(lp621
I1997
aI2014
asS'Tim Conway'
p622
(lp623
I1997
asS'Jane Leeves'
p624
(lp625
I2003
asS'George Harrison'
p626
(lp627
I1993
asS'Gedde Watanabe'
p628
(lp629
I1997
aI1999
asS'Dennis Weaver'
p630
(lp631
I2002
asS'Jay North'
p632
(lp633
I2000
asS'Joey Miyashima'
p634
(lp635
I1991
asS'Elvis Stojko'
p636
(lp637
I2006
asS'Sam McMurray'
p638
(lp639
I1990
aI1990
asS'Marc Wilmore'
p640
(lp641
I2000
asS'Judd Apatow'
p642
(lp643
I2013
asS'Phil McGraw'
p644
(lp645
I2006
asS'Mandy Patinkin'
p646
(lp647
I1995
asS'Eric Idle'
p648
(lp649
I2003
aI2004
aI2007
aI2012
asS'Steve Buscemi'
p650
(lp651
I2003
aI2007
asS'Scott Thompson'
p652
(lp653
I2003
aI2008
aI2010
asS'Daniel Stern'
p654
(lp655
I1991
asS'Mark Hamill'
p656
(lp657
I1999
asS'Muhammad Yunus'
p658
(lp659
I2010
asS'Merl Reagle'
p660
(lp661
I2008
asS'Yael Naim'
p662
(lp663
I2010
asS'Tom Colicchio'
p664
(lp665
I2011
asS'Christopher Lloyd'
p666
(lp667
I2014
asS'Bill James'
p668
(lp669
I2010
asS'Joe Mantegna'
p670
(lp671
I1992
aI1995
aI1996
aI1997
aI1997
aI1999
aI2000
aI2000
aI2000
aI2001
aI2001
aI2002
aI2003
aI2003
aI2003
aI2004
aI2005
aI2006
aI2008
aI2009
aI2010
aI2010
aI2010
aI2011
aI2012
aI2014
aI2015
aI2015
asS'Steve Carell'
p672
(lp673
I2012
asS'Tom Petty'
p674
(lp675
I2002
asS'Stephen King'
p676
(lp677
I2000
asS'Jane Lynch'
p678
(lp679
I2011
asS'Katy Perry'
p680
(lp681
I2010
asS'R. Lee Ermey'
p682
(lp683
I1996
aI2015
asS'Keith Olbermann'
p684
(lp685
I2007
asS'Michelle Kwan'
p686
(lp687
I2004
asS'Andr?s Cantor'
p688
(lp689
I2013
asS'Rosey Grier'
p690
(lp691
I1999
asS'Kristen Schaal'
p692
(lp693
I2011
asS'Glen Hansard'
p694
(lp695
I2008
asS'Dolly Parton'
p696
(lp697
I1999
asS'Meg Ryan'
p698
(lp699
I2007
asS'Mitch Albom'
p700
(lp701
I2009
asS'Anthony Bourdain'
p702
(lp703
I2011
asS'Frankie Muniz'
p704
(lp705
I2001
asS'Jeff Ross'
p706
(lp707
I2014
asS'Michelle Pfeiffer'
p708
(lp709
I1994
asS'Tom Arnold'
p710
(lp711
I1999
asS'Eartha Kitt'
p712
(lp713
I2009
asS'Kevin Michael Richardson'
p714
(lp715
I2009
aI2010
aI2011
aI2011
aI2011
aI2011
aI2012
aI2012
aI2012
aI2013
aI2013
aI2013
aI2013
aI2013
aI2013
aI2014
aI2015
asS'Michael Carrington'
p716
(lp717
I1993
aI1994
aI1998
aI2005
asS'Paul Newman'
p718
(lp719
I2001
asS'Frances Sternhagen'
p720
(lp721
I2002
asS'Ron Howard'
p722
(lp723
I1999
aI2000
asS'Jim Lau'
p724
(lp725
I1996
asS'Lily Tomlin'
p726
(lp727
I2005
asS'Isabella Rossellini'
p728
(lp729
I1999
asS'Joan Kenley'
p730
(lp731
I1996
aI1996
aI1997
asS'Mark Zuckerberg'
p732
(lp733
I2010
asS'Eli Manning'
p734
(lp735
I2009
asS'Johnny Mathis'
p736
(lp737
I2015
asS'Ted Nugent'
p738
(lp739
I2007
aI2011
asS'Max Weinberg'
p740
(lp741
I2013
asS'Gore Vidal'
p742
(lp743
I2006
asS'Mel Brooks'
p744
(lp745
I1995
asS'Larry Hagman'
p746
(lp747
I2006
asS'Dustin Hoffman'
p748
(lp749
I1991
asS'Darryl Strawberry'
p750
(lp751
I1992
asS'Steve Allen'
p752
(lp753
I1992
aI1995
asS'Robert Schimmel'
p754
(lp755
I2001
asS'John Updike'
p756
(lp757
I2000
asS'Magic Johnson'
p758
(lp759
I1992
asS'Marv Albert'
p760
(lp761
I2008
asS'Clarence Clemons'
p762
(lp763
I2000
asS'Julia Louis-Dreyfus'
p764
(lp765
I2001
aI2007
aI2008
asS'Luke Perry'
p766
(lp767
I1993
asS'Sarah Michelle Gellar'
p768
(lp769
I2004
aI2012
asS'John Ratzenberger'
p770
(lp771
I1995
aI2014
asS'Tom Waits'
p772
(lp773
I2012
asS'Leeza Gibbons'
p774
(lp775
I2000
asS'Mary Lynn Rajskub'
p776
(lp777
I2007
asS'Dana Gould'
p778
(lp779
I2011
asS'Jamie Hyneman'
p780
(lp781
I2012
asS'Tom Clancy'
p782
(lp783
I2003
asS'Richard Dawkins'
p784
(lp785
I2013
asS'Elwood Edwards'
p786
(lp787
I2000
asS'Ernest Borgnine'
p788
(lp789
I1994
asS'Bruce Baum'
p790
(lp791
I1998
asS'Wade Boggs'
p792
(lp793
I1992
asS'Dick Clark'
p794
(lp795
I1999
asS'Justin Roiland'
p796
(lp797
I2015
asS'Chris Martin'
p798
(lp799
I2009
asS'Gailard Sartain'
p800
(lp801
I1997
asS'Rudy Giuliani'
p802
(lp803
I2007
asS'Bob Hope'
p804
(lp805
I1993
asS'Kathy Griffin'
p806
(lp807
I2001
asS'John Goodman'
p808
(lp809
I2000
asS'Seth MacFarlane'
p810
(lp811
I2013
asS'Werner Klemperer'
p812
(lp813
I1994
asS'Patrick Stewart'
p814
(lp815
I1995
aI2013
asS'David Crosby'
p816
(lp817
I1993
aI1993
asS'Brian Setzer'
p818
(lp819
I2002
asS'Jane Krakowski'
p820
(lp821
I2013
asS'Ron Taylor'
p822
(lp823
I1990
aI1995
asS'Ron English'
p824
(lp825
I2012
asS'Brian Grazer'
p826
(lp827
I1999
aI2008
asS'Burt Ward'
p828
(lp829
I2002
asS'Jasper Johns'
p830
(lp831
I1999
asS'Kristen Wiig'
p832
(lp833
I2010
aI2013
asS'Sonny Rollins'
p834
(lp835
I2013
asS'Tavi Gevinson'
p836
(lp837
I2014
asS'George Plimpton'
p838
(lp839
I2003
asS'Meryl Streep'
p840
(lp841
I1995
asS'Paul Anka'
p842
(lp843
I1996
asS'Ted Danson'
p844
(lp845
I1995
asS'James L. Brooks'
p846
(lp847
I2003
asS'Peter Frampton'
p848
(lp849
I1996
asS'Leslie Mann'
p850
(lp851
I2013
asS'Robbie Conal'
p852
(lp853
I2012
asS'David Silverman'
p854
(lp855
I2014
asS'John Oliver'
p856
(lp857
I2014
asS'Dr. Demento'
p858
(lp859
I1994
asS'Tony Blair'
p860
(lp861
I2003
asS'Ed McMahon'
p862
(lp863
I1998
asS'Betty White'
p864
(lp865
I2000
aI2007
asS'Randy Bachman'
p866
(lp867
I2000
asS'Eric Wareheim'
p868
(lp869
I2011
asS'Adam West'
p870
(lp871
I1993
aI2002
asS'Jordan Nagai'
p872
(lp873
I2009
asS'Henry Winkler'
p874
(lp875
I2000
asS"Beverly D'Angelo"
p876
(lp877
I1992
aI2008
asS'Audrey Meadows'
p878
(lp879
I1991
asS'Jemaine Clement'
p880
(lp881
I2010
asS'Danica Patrick'
p882
(lp883
I2010
asS'John Mahoney'
p884
(lp885
I2007
asS'Paul McCartney'
p886
(lp887
I1996
asS'Neil Patrick Harris'
p888
(lp889
I1992
asS'Robert Siegel'
p890
(lp891
I2014
asS'Tony Bennett'
p892
(lp893
I1991
aI2002
asS'Mark Cuban'
p894
(lp895
I2008
asS'Barry White'
p896
(lp897
I1993
aI1993
asS'Mike Scioscia'
p898
(lp899
I1992
aI2010
asS'Jack Black'
p900
(lp901
I2007
asS'Lionel Richie'
p902
(lp903
I2007
asS'Ryan Seacrest'
p904
(lp905
I2010
asS'Jess Harnell'
p906
(lp907
I2001
asS'Stephen Jay Gould'
p908
(lp909
I1998
asS'Andy Serkis'
p910
(lp911
I2003
asS'Michael Imperioli'
p912
(lp913
I2006
asS'Carice van Houten'
p914
(lp915
I2015
asS'Will Arnett'
p916
(lp917
I2013
asS'Rachel Maddow'
p918
(lp919
I2013
asS'Rupert Murdoch'
p920
(lp921
I1999
aI2010
asS'Elliott Gould'
p922
(lp923
I2003
asS'Armie Hammer'
p924
(lp925
I2011
asS'Matthew Perry'
p926
(lp927
I2001
asS'George Fenneman'
p928
(lp929
I1994
asS'Mickey Rooney'
p930
(lp931
I1995
asS'Jackie Mason'
p932
(lp933
I1992
aI2003
aI2009
aI2011
aI2011
aI2012
aI2014
asS'Edward Norton'
p934
(lp935
I2000
aI2013
asS'Danny DeVito'
p936
(lp937
I1991
aI1992
aI2012
asS'Sacha Baron Cohen'
p938
(lp939
I2009
asS'Wolfgang Puck'
p940
(lp941
I2002
asS'Tim Robbins'
p942
(lp943
I2000
asS'Matt Dillon'
p944
(lp945
I2007
asS'Kara DioGuardi'
p946
(lp947
I2010
asS'Julian Assange'
p948
(lp949
I2012
asS'Stacy Keach'
p950
(lp951
I2001
aI2003
aI2006
aI2014
aI2015
asS'Susie Smith'
p952
(lp953
I1998
asS'Yaya DaCosta'
p954
(lp955
I2015
asS'Mark Campbell'
p956
(lp957
I2004
asS'Evan Marriott'
p958
(lp959
I2003
asS'Rhea Perlman'
p960
(lp961
I1995
asS'Martin Sheen'
p962
(lp963
I1997
asS'Alyson Hannigan'
p964
(lp965
I2010
asS'Michael Chabon'
p966
(lp967
I2006
asS'Wanda Sykes'
p968
(lp969
I2013
asS'Sang Am Lee'
p970
(lp971
I2007
asS'Jon Lovitz'
p972
(lp973
I1991
aI1991
aI1992
aI1992
aI1995
aI1997
aI2002
aI2004
aI2007
aI2012
aI2013
aI2015
asS'William Daniels'
p974
(lp975
I1998
aI2004
asS'Dennis Franz'
p976
(lp977
I1995
asS'Lisa Kudrow'
p978
(lp979
I1998
asS'Nathan Fielder'
p980
(lp981
I2015
asS'Ozzie Smith'
p982
(lp983
I1992
asS'Olympia Dukakis'
p984
(lp985
I2002
asS'Jerry Lewis'
p986
(lp987
I2003
asS'Christopher Guest'
p988
(lp989
I1992
asS'George Takei'
p990
(lp991
I1991
aI1999
aI2001
aI2013
asS'Rob Halford'
p992
(lp993
I2013
asS'Sab Shimono'
p994
(lp995
I1991
aI1997
aI2006
asS'Tom Jones'
p996
(lp997
I1993
asS'Bret Hart'
p998
(lp999
I1997
asS'Trevor Denman'
p1000
(lp1001
I2000
asS'Frances McDormand'
p1002
(lp1003
I2006
asS'John C. Reilly'
p1004
(lp1005
I2008
asS'Lisa Leslie'
p1006
(lp1007
I2003
asS'Colm Meaney'
p1008
(lp1009
I2008
asS'Mark?ta Irglov?'
p1010
(lp1011
I2008
asS'Mario Batali'
p1012
(lp1013
I2011
asS'Mick Jagger'
p1014
(lp1015
I2002
asS'Meher Tatna'
p1016
(lp1017
I2006
asS"Conan O'Brien"
p1018
(lp1019
I1994
asS'Elvis Costello'
p1020
(lp1021
I2002
asS'Glenn Close'
p1022
(lp1023
I1996
aI2003
aI2008
aI2012
aI2014
aI2015
asS'Lenny Kravitz'
p1024
(lp1025
I2002
asS'Halle Berry'
p1026
(lp1027
I2011
asS'Jack McBrayer'
p1028
(lp1029
I2011
asS'Harry Morgan'
p1030
(lp1031
I1996
asS'Tim Heidecker'
p1032
(lp1033
I2011
asS'Tom Kite'
p1034
(lp1035
I1996
asS'Carmen Electra'
p1036
(lp1037
I2002
asS'Ed Begley, Jr.'
p1038
(lp1039
I1999
aI2008
asS'Sara Gilbert'
p1040
(lp1041
I1993
asS'Charlie Rose'
p1042
(lp1043
I2000
asS'William H. Macy'
p1044
(lp1045
I2005
asS'Rob Reiner'
p1046
(lp1047
I2005
asS'David Copperfield'
p1048
(lp1049
I2011
asS'Joe C.'
p1050
(lp1051
I2000
asS'Carrie Brownstein'
p1052
(lp1053
I2012
asS'Penny Marshall'
p1054
(lp1055
I1990
asS'June Foray'
p1056
(lp1057
I1990
asS'Stan Lee'
p1058
(lp1059
I2002
aI2013
asS'Elisabeth Moss'
p1060
(lp1061
I2013
asS'Pat Summerall'
p1062
(lp1063
I1999
asS'Kathie Lee Gifford'
p1064
(lp1065
I1998
asS'Rodney Dangerfield'
p1066
(lp1067
I1997
asS'Paul Winfield'
p1068
(lp1069
I1996
aI1998
asS'Martin Mull'
p1070
(lp1071
I1999
asS'Rachel Weisz'
p1072
(lp1073
I2010
asS'Joe Frazier'
p1074
(lp1075
I1992
aI2005
asS'Alex Rocco'
p1076
(lp1077
I1991
aI1996
aI1997
asS'Alex Trebek'
p1078
(lp1079
I1998
aI2012
asS'Serena Williams'
p1080
(lp1081
I2001
asS'Valerie Harper'
p1082
(lp1083
I2012
asS'Denis Leary'
p1084
(lp1085
I2008
asS'Jason Bateman'
p1086
(lp1087
I2005
asS'Michael Dees'
p1088
(lp1089
I1997
asS'Jonathan Franzen'
p1090
(lp1091
I2006
asS'Joe Namath'
p1092
(lp1093
I1998
aI2013
asS'Fyvush Finkel'
p1094
(lp1095
I1997
asS'Chris Hansen'
p1096
(lp1097
I2010
asS'Marisa Tomei'
p1098
(lp1099
I2003
asS'Eddie Izzard'
p1100
(lp1101
I2010
asS'Randy Johnson'
p1102
(lp1103
I2005
asS'Willie Nelson'
p1104
(lp1105
I2000
asS'Bruce Vilanch'
p1106
(lp1107
I2001
asS'Henry Corden'
p1108
(lp1109
I1994
asS'Gary Larson'
p1110
(lp1111
I2009
asS'Michael Buffer'
p1112
(lp1113
I1996
asS'Terry Greene'
p1114
(lp1115
I2004
asS'Amy Poehler'
p1116
(lp1117
I2005
aI2013
asS'Don Mattingly'
p1118
(lp1119
I1992
asS'Joey Kramer'
p1120
(lp1121
I2011
asS'Lucy Liu'
p1122
(lp1123
I2004
asS'Reese Witherspoon'
p1124
(lp1125
I2002
asS'John Waters'
p1126
(lp1127
I1997
asS'Dudley R. Herschbach'
p1128
(lp1129
I2003
asS'Justin Bieber'
p1130
(lp1131
I2013
asS'Zooey Deschanel'
p1132
(lp1133
I2008
aI2012
aI2013
asS'Janet Reno'
p1134
(lp1135
I2013
asS'Ellen Page'
p1136
(lp1137
I2009
asS'Jeff Goldblum'
p1138
(lp1139
I1996
asS'Kenny Scharf'
p1140
(lp1141
I2012
asS'Joan Rivers'
p1142
(lp1143
I2011
asS'Rashida Jones'
p1144
(lp1145
I2012
asS'Rod Steiger'
p1146
(lp1147
I1998
asS'Lady Gaga'
p1148
(lp1149
I2012
asS'J. K. Simmons'
p1150
(lp1151
I2006
aI2007
asS'Helen Hunt'
p1152
(lp1153
I1998
asS'Andy Dick'
p1154
(lp1155
I2007
asS'Wren T. Brown'
p1156
(lp1157
I2009
asS'Cory Monteith'
p1158
(lp1159
I2010
asS'Larry McKay'
p1160
(lp1161
I1992
asS'Jim Varney'
p1162
(lp1163
I1998
asS'Venus Williams'
p1164
(lp1165
I2001
asS'Antonio Fargas'
p1166
(lp1167
I2005
asS'"Weird Al" Yankovic'
p1168
(lp1169
I2003
aI2008
asS'George Carlin'
p1170
(lp1171
I1999
asS'Max von Sydow'
p1172
(lp1173
I2013
asS'Phil LaMarr'
p1174
(lp1175
I2014
asS'Colin Meloy'
p1176
(lp1177
I2012
asS'Seth Rogen'
p1178
(lp1179
I2009
aI2013
as.