ccollections
defaultdict
p1
(c__builtin__
list
p2
tRp3
S'Josh Hartnett'
p4
(lp5
I2002
asS'Lauren Hutton'
p6
(lp7
I1981
asS'Anna Kendrick'
p8
(lp9
I2014
asS'Charlton Heston'
p10
(lp11
I1987
aI1993
asS'Wayne Gretzky'
p12
(lp13
I1989
asS'George Wendt\nFrancis Ford Coppola'
p14
(lp15
I1986
asS'Rob Morrow'
p16
(lp17
I1992
asS'Michael Palin'
p18
(lp19
I1978
aI1979
aI1979
aI1984
asS'Joan Allen'
p20
(lp21
I1998
asS'Pamela Anderson'
p22
(lp23
I1997
asS'Hugh Hefner'
p24
(lp25
I1977
asS'Brendan Fraser'
p26
(lp27
I1997
aI1999
asS'Roma Downey'
p28
(lp29
I1998
asS'David Hyde Pierce'
p30
(lp31
I1995
asS'Forest Whitaker'
p32
(lp33
I2007
asS'Flip Wilson'
p34
(lp35
I1983
asS'Louis C.K.'
p36
(lp37
I2012
aI2014
aI2015
asS'Seann William Scott'
p38
(lp39
I2001
asS'Ariana Grande'
p40
(lp41
I2016
asS'Justine Bateman'
p42
(lp43
I1988
asS'Matthew Fox'
p44
(lp45
I2006
asS'Danny Aiello'
p46
(lp47
I1996
asS'Natalie Portman'
p48
(lp49
I2006
asS'Eva Longoria'
p50
(lp51
I2005
asS'Danny DeVito & Rhea Perlman'
p52
(lp53
I1983
asS'Jonah Hill'
p54
(lp55
I2008
aI2012
aI2014
aI2016
asS'Rick Moranis'
p56
(lp57
I1989
asS'Adam Driver'
p58
(lp59
I2016
asS'Elle Macpherson'
p60
(lp61
I1996
asS'Delta Burke'
p62
(lp63
I1991
asS'Jerry Seinfeld'
p64
(lp65
I1992
aI1999
asS'LeBron James'
p66
(lp67
I2007
asS'Ellen DeGeneres'
p68
(lp69
I2001
asS'Shelley Duvall'
p70
(lp71
I1977
asS'Josh Hutcherson'
p72
(lp73
I2013
asS'Jennifer Garner'
p74
(lp75
I2003
asS'Kirk Douglas'
p76
(lp77
I1980
asS'Ron Reagan'
p78
(lp79
I1986
asS'Charlize Theron'
p80
(lp81
I2000
aI2014
asS'Chris Evert'
p82
(lp83
I1989
asS'Joe Montana\nWalter Payton'
p84
(lp85
I1987
asS'Jaime Pressly'
p86
(lp87
I2006
asS'Charlie Sheen'
p88
(lp89
I2001
asS'Ryan Gosling'
p90
(lp91
I2015
asS'Zach Galifianakis'
p92
(lp93
I2010
aI2011
aI2013
asS'Colin Farrell'
p94
(lp95
I2004
asS'Michael Jordan'
p96
(lp97
I1991
asS'Andrew Dice Clay'
p98
(lp99
I1990
asS'Jeff Daniels'
p100
(lp101
I1991
aI1995
asS'Joshua Jackson'
p102
(lp103
I2000
asS'Ringo Starr'
p104
(lp105
I1984
asS'Neve Campbell'
p106
(lp107
I1997
asS'Ryan Phillippe'
p108
(lp109
I2010
asS'Alec Baldwin'
p110
(lp111
I1990
aI1991
aI1993
aI1994
aI1996
aI1997
aI1998
aI2001
aI2002
aI2003
aI2005
aI2006
aI2009
aI2010
aI2011
asS'Mike Myers'
p112
(lp113
I1997
asS'Kiefer Sutherland'
p114
(lp115
I1991
asS'Teri Hatcher'
p116
(lp117
I1996
asS'Andrew Garfield'
p118
(lp119
I2014
asS'Peyton Manning'
p120
(lp121
I2007
asS'Kate Hudson'
p122
(lp123
I2000
asS"Conan O'Brien"
p124
(lp125
I2001
asS'Pierce Brosnan'
p126
(lp127
I2001
asS'Justin Timberlake'
p128
(lp129
I2003
aI2006
aI2009
aI2011
aI2013
asS'Dick Cavett'
p130
(lp131
I1976
aI1976
asS'Sam Kinison'
p132
(lp133
I1986
asS'Susan Dey'
p134
(lp135
I1992
asS'Howard Cosell'
p136
(lp137
I1985
asS'Jake Gyllenhaal'
p138
(lp139
I2007
asS'Jeremy Irons'
p140
(lp141
I1991
asS'Chris Farley'
p142
(lp143
I1997
asS'Jill Clayburgh'
p144
(lp145
I1976
aI1978
asS'Billy Crystal, Ed Koch, Edwin Newman, Don Novello, Betty Thomas'
p146
(lp147
I1984
asS'Ray Sharkey'
p148
(lp149
I1981
asS'Bob Newhart'
p150
(lp151
I1980
aI1995
asS'Michael McKean'
p152
(lp153
I1984
asS'Tina Fey'
p154
(lp155
I2008
aI2010
aI2011
aI2013
asS'Matthew Modine'
p156
(lp157
I1988
asS'Charlie Day'
p158
(lp159
I2011
asS'Candice Bergen'
p160
(lp161
I1975
aI1975
aI1976
aI1987
aI1990
asS'Quentin Tarantino'
p162
(lp163
I1995
asS'Josh Brolin'
p164
(lp165
I2008
aI2012
asS'Peter Cook & Dudley Moore'
p166
(lp167
I1976
asS'Melanie Griffith'
p168
(lp169
I1988
asS'William Shatner'
p170
(lp171
I1986
asS'Catherine Oxenberg\nPaul Simon'
p172
(lp173
I1986
asS'none'
p174
(lp175
I1980
aI1981
asS'Brandon Tartikoff'
p176
(lp177
I1983
asS'Ludacris'
p178
(lp179
I2006
asS'Jay Leno'
p180
(lp181
I1986
asS'Emma Stone'
p182
(lp183
I2010
aI2011
asS'Queen Latifah'
p184
(lp185
I2003
aI2004
asS'Channing Tatum'
p186
(lp187
I2012
asS'Miranda Richardson'
p188
(lp189
I1993
asS'Bill Murray'
p190
(lp191
I1981
aI1981
aI1987
aI1993
aI1999
asS'Joe Pesci'
p192
(lp193
I1992
asS'Jeremy Piven'
p194
(lp195
I2007
asS'Betty Thomas'
p196
(lp197
I1983
asS'Tobey Maguire'
p198
(lp199
I2000
asS'Jennifer Love Hewitt'
p200
(lp201
I1998
asS'Anne Hathaway'
p202
(lp203
I2008
aI2010
aI2012
asS'Dwayne Johnson'
p204
(lp205
I2002
aI2009
aI2015
asS'Quincy Jones'
p206
(lp207
I1990
asS'David Carradine'
p208
(lp209
I1980
asS'Christina Ricci'
p210
(lp211
I1999
asS'Martin Freeman'
p212
(lp213
I2014
asS'Johnny Knoxville'
p214
(lp215
I2005
asS'Bruce Dern'
p216
(lp217
I1982
aI1983
asS'Blake Lively'
p218
(lp219
I2009
asS'Lin-Manuel Miranda[112]'
p220
(lp221
I2016
asS'Val Kilmer'
p222
(lp223
I2000
asS'Julia Stiles'
p224
(lp225
I2001
asS'Taylor Swift'
p226
(lp227
I2009
asS'Paul Shaffer'
p228
(lp229
I1987
asS'Jason Segel'
p230
(lp231
I2011
asS'Kate Winslet'
p232
(lp233
I2004
asS'Ronda Rousey'
p234
(lp235
I2016
asS'David Schwimmer'
p236
(lp237
I1995
asS'Mick Jagger'
p238
(lp239
I2012
asS'Helen Mirren'
p240
(lp241
I2011
asS"Rosie O'Donnell"
p242
(lp243
I1993
aI1996
asS'Frank Zappa'
p244
(lp245
I1978
asS'Julian Bond'
p246
(lp247
I1977
asS'Lara Flynn Boyle'
p248
(lp249
I2001
asS'Walter Matthau'
p250
(lp251
I1978
asS'Kelsey Grammer'
p252
(lp253
I1994
aI1998
asS'Greg Kinnear'
p254
(lp255
I1998
asS'Tom Hanks'
p256
(lp257
I1985
aI1988
aI1988
aI1990
aI1990
aI1992
aI1996
aI2006
asS'Sinbad'
p258
(lp259
I1992
asS'Nancy Kerrigan'
p260
(lp261
I1994
asS'Mary Kay Place'
p262
(lp263
I1977
asS'Gwyneth Paltrow'
p264
(lp265
I1999
aI2001
aI2011
asS'Antonio Banderas'
p266
(lp267
I2006
asS'Phil Hartman'
p268
(lp269
I1996
aI1996
asS'Hugh Jackman'
p270
(lp271
I2001
asS'Harvey Keitel'
p272
(lp273
I1993
asS'Debra Winger'
p274
(lp275
I1990
asS'Ray Romano'
p276
(lp277
I1999
aI2003
asS'Alex Karras'
p278
(lp279
I1985
asS'Peter Boyle'
p280
(lp281
I1976
asS'Leslie Nielsen'
p282
(lp283
I1989
asS'Michael Keaton'
p284
(lp285
I1982
aI1992
aI2015
asS'Adam Levine'
p286
(lp287
I2013
asS'Kris Kristofferson'
p288
(lp289
I1976
asS'Jane Lynch'
p290
(lp291
I2010
asS'John Lithgow'
p292
(lp293
I1985
aI1987
aI1988
asS'Liam Neeson'
p294
(lp295
I2004
asS'Christian Slater'
p296
(lp297
I1991
aI1993
asS'January Jones'
p298
(lp299
I2009
asS'Matt Damon'
p300
(lp301
I2002
asS'Steve Martin'
p302
(lp303
I1976
aI1977
aI1977
aI1978
aI1978
aI1978
aI1979
aI1980
aI1987
aI1989
aI1991
aI1994
aI2006
aI2009
asS'Martin Short'
p304
(lp305
I1996
aI2012
asS'Adrien Brody'
p306
(lp307
I2003
asS'Jodie Foster'
p308
(lp309
I1976
asS'(none)'
p310
(lp311
I1981
aI1984
asS'Gary Busey'
p312
(lp313
I1979
asS'Robert Blake'
p314
(lp315
I1982
asS'Mary Stuart Masterson'
p316
(lp317
I1992
asS'James Franco'
p318
(lp319
I2008
aI2009
aI2014
asS'Eddie Murphy'
p320
(lp321
I1982
aI1984
asS'Janet Jackson'
p322
(lp323
I2004
asS'Kelly Ripa'
p324
(lp325
I2003
asS'Christopher Walken'
p326
(lp327
I1990
aI1992
aI1996
aI2000
aI2001
aI2003
aI2008
asS'Jason Priestley'
p328
(lp329
I1992
asS'Matthew McConaughey'
p330
(lp331
I2003
aI2015
asS'Sof?a Vergara'
p332
(lp333
I2012
asS'Lucy Lawless'
p334
(lp335
I1998
asS'Sting'
p336
(lp337
I1991
aI1997
asS'Ricky Nelson'
p338
(lp339
I1979
asS'Norman Lear'
p340
(lp341
I1976
asS'Halle Berry'
p342
(lp343
I2003
asS'George Wendt'
p344
(lp345
I1991
asS'Desi Arnaz'
p346
(lp347
I1976
asS'Courteney Cox'
p348
(lp349
I1995
asS'Rick Moranis\nDave Thomas'
p350
(lp351
I1983
asS'Sean Penn'
p352
(lp353
I1987
asS'Mr. T\nHulk Hogan'
p354
(lp355
I1985
asS'Jennifer Aniston'
p356
(lp357
I1999
aI2004
asS'Andy Roddick'
p358
(lp359
I2003
asS'Ren?e Zellweger'
p360
(lp361
I2001
asS'Ted Knight'
p362
(lp363
I1979
asS'Garry Shandling'
p364
(lp365
I1987
asS'Johnny Cash'
p366
(lp367
I1982
asS'Matthew Broderick'
p368
(lp369
I1988
aI1998
asS'Ian McKellen'
p370
(lp371
I2002
asS'Don Rickles'
p372
(lp373
I1984
asS'Jennifer Lopez'
p374
(lp375
I2001
aI2010
asS'Kathleen Turner'
p376
(lp377
I1985
aI1989
asS'Jack Burns'
p378
(lp379
I1977
asS'Mary-Kate and Ashley Olsen'
p380
(lp381
I2004
asS'Kevin Kline'
p382
(lp383
I1988
aI1993
asS'Kyle MacLachlan'
p384
(lp385
I1990
asS'Ron Nessen'
p386
(lp387
I1976
asS'Sigourney Weaver'
p388
(lp389
I1986
aI2010
asS'Catherine Zeta-Jones'
p390
(lp391
I2005
asS'Michael Sarrazin'
p392
(lp393
I1978
asS'Edwin Newman'
p394
(lp395
I1984
asS'Dylan McDermott'
p396
(lp397
I1999
asS'Jon Stewart'
p398
(lp399
I2002
asS'Samuel L. Jackson'
p400
(lp401
I1998
asS'Cicely Tyson'
p402
(lp403
I1979
asS'James Van Der Beek'
p404
(lp405
I1999
asS'Melissa McCarthy'
p406
(lp407
I2011
aI2013
aI2014
aI2016
asS'Winona Ryder'
p408
(lp409
I2002
asS'Richard Dreyfuss'
p410
(lp411
I1978
asS'Lance Armstrong'
p412
(lp413
I2005
asS'Elton John'
p414
(lp415
I2011
asS'Ed Koch'
p416
(lp417
I1983
asS'Ralph Nader'
p418
(lp419
I1977
asS'Dane Cook'
p420
(lp421
I2005
aI2006
asS'Chevy Chase'
p422
(lp423
I1978
aI1980
aI1982
aI1985
aI1992
aI1995
aI1997
asS'Paul Reiser'
p424
(lp425
I1995
asS'Calista Flockhart'
p426
(lp427
I2000
asS'Robert Wagner'
p428
(lp429
I1989
asS'Chris Rock'
p430
(lp431
I1996
aI2014
asS'Katy Perry'
p432
(lp433
I2011
asS'Dakota Johnson'
p434
(lp435
I2015
asS'Ryan Reynolds'
p436
(lp437
I2009
asS'Sissy Spacek'
p438
(lp439
I1977
asS'Lindsay Lohan'
p440
(lp441
I2004
aI2005
aI2006
aI2012
asS'Maya Rudolph'
p442
(lp443
I2012
asS'Robert Hays'
p444
(lp445
I1981
asS'Jimmy Fallon'
p446
(lp447
I2011
aI2013
asS'Dennis Hopper'
p448
(lp449
I1987
aI1990
asS'Angie Dickinson'
p450
(lp451
I1987
asS'Brian Williams'
p452
(lp453
I2007
asS'Ellen Burstyn'
p454
(lp455
I1980
asS'Brittany Murphy'
p456
(lp457
I2002
asS'Kate Jackson'
p458
(lp459
I1979
asS'Bill Russell'
p460
(lp461
I1979
asS'Malcolm-Jamal Warner'
p462
(lp463
I1986
asS'Luke Wilson'
p464
(lp465
I2004
asS'Al Sharpton'
p466
(lp467
I2003
asS'Robert Mitchum'
p468
(lp469
I1987
asS'Snoop Dogg'
p470
(lp471
I2004
asS'Sarah Silverman'
p472
(lp473
I2014
asS'Jerry Hall'
p474
(lp475
I1986
asS'Damon Wayans'
p476
(lp477
I1995
asS'Fred Willard'
p478
(lp479
I1978
asS'Heather Graham'
p480
(lp481
I1999
asS'Ed Asner'
p482
(lp483
I1984
asS'Madonna'
p484
(lp485
I1985
asS'Elijah Wood'
p486
(lp487
I2003
asS'Carl Weathers'
p488
(lp489
I1988
asS'Mel Gibson'
p490
(lp491
I1989
asS'Drew Barrymore'
p492
(lp493
I1982
aI1999
aI2001
aI2004
aI2007
aI2009
asS'Paris Hilton'
p494
(lp495
I2005
asS'Jim Carrey'
p496
(lp497
I1996
aI2011
aI2014
asS'Maureen Stapleton'
p498
(lp499
I1979
asS'Britney Spears'
p500
(lp501
I2000
aI2002
asS'Roy Scheider'
p502
(lp503
I1985
asS'Barry Bostwick'
p504
(lp505
I1984
asS'Rudolph Giuliani'
p506
(lp507
I1997
asS'Beau Bridges\nJeff Bridges'
p508
(lp509
I1983
asS'Andie MacDowell'
p510
(lp511
I1989
asS'Jimmy Breslin'
p512
(lp513
I1986
asS'John Travolta'
p514
(lp515
I1994
asS'Topher Grace'
p516
(lp517
I2005
asS'Woody Harrelson'
p518
(lp519
I1989
aI1992
aI2014
asS'Michael J. Fox'
p520
(lp521
I1991
asS'Harry Anderson'
p522
(lp523
I1985
asS'Will Ferrell'
p524
(lp525
I2005
aI2009
aI2012
asS'Ben Stiller'
p526
(lp527
I1998
aI2011
asS'Bea Arthur'
p528
(lp529
I1979
asS'Paul Rudd'
p530
(lp531
I2008
aI2010
aI2013
asS'Elizabeth Banks'
p532
(lp533
I2015
asS'Tina Fey & Amy Poehler'
p534
(lp535
I2015
asS'Tom Brady'
p536
(lp537
I2005
asS'George McGovern'
p538
(lp539
I1984
asS'Donald Pleasence'
p540
(lp541
I1981
asS'Jeff Gordon'
p542
(lp543
I2003
asS'Nia Vardalos'
p544
(lp545
I2002
asS'James Woods'
p546
(lp547
I1989
asS'Gabriel Byrne'
p548
(lp549
I1995
asS'John Madden'
p550
(lp551
I1982
asS'Strother Martin'
p552
(lp553
I1980
asS'Bill Hader'
p554
(lp555
I2014
asS'Demi Moore'
p556
(lp557
I1988
asS'Bryan Cranston'
p558
(lp559
I2010
asS'Mark Harmon'
p560
(lp561
I1987
asS'Patrick Swayze'
p562
(lp563
I1990
asS'Anthony Perkins'
p564
(lp565
I1976
asS'Robert Urich'
p566
(lp567
I1982
asS'Russell Crowe'
p568
(lp569
I2016
asS'Richard Pryor'
p570
(lp571
I1975
asS'Brie Larson'
p572
(lp573
I2016
asS'Derek Jeter'
p574
(lp575
I2001
asS'MC Hammer'
p576
(lp577
I1991
asS'Mariel Hemingway'
p578
(lp579
I1995
asS'Fran Tarkenton'
p580
(lp581
I1977
asS'Milton Berle'
p582
(lp583
I1979
asS'Tim McGraw'
p584
(lp585
I2008
asS'George Steinbrenner'
p586
(lp587
I1990
asS'Julianne Moore'
p588
(lp589
I1998
asS'Richard Benjamin'
p590
(lp591
I1979
asS'Harry Dean Stanton'
p592
(lp593
I1986
asS'Bradley Cooper'
p594
(lp595
I2009
asS'John Candy'
p596
(lp597
I1983
asS'Ed Helms'
p598
(lp599
I2011
asS'Eric Idle'
p600
(lp601
I1976
aI1977
aI1978
aI1979
asS'Chris Hemsworth'
p602
(lp603
I2015
aI2015
asS'Steve Buscemi'
p604
(lp605
I1998
aI2011
asS'Larry David'
p606
(lp607
I2016
asS'Nicole Kidman'
p608
(lp609
I1993
asS'Robert Downey, Jr.'
p610
(lp611
I1996
asS'Paul Giamatti'
p612
(lp613
I2005
asS'Robin Williams'
p614
(lp615
I1984
aI1986
aI1988
asS'Teri Garr'
p616
(lp617
I1980
aI1983
aI1985
asS'Margot Robbie'
p618
(lp619
I2016
asS'Joe Mantegna'
p620
(lp621
I1991
asS'Bronson Pinchot'
p622
(lp623
I1987
asS'Molly Shannon'
p624
(lp625
I2007
asS'Dabney Coleman'
p626
(lp627
I1987
asS'Elizabeth Ashley'
p628
(lp629
I1982
asS'Steve Carell'
p630
(lp631
I2005
aI2008
asS'Laura Leighton'
p632
(lp633
I1995
asS'Daniel J. Travanti'
p634
(lp635
I1982
asS'Kirstie Alley'
p636
(lp637
I1991
aI1993
asS'Deion Sanders'
p638
(lp639
I1995
asS'Jim Parsons'
p640
(lp641
I2014
asS'Lena Dunham'
p642
(lp643
I2014
asS"Catherine O'Hara"
p644
(lp645
I1991
aI1992
asS'Robert Klein'
p646
(lp647
I1975
aI1978
asS'Dolly Parton'
p648
(lp649
I1989
asS'Margot Kidder'
p650
(lp651
I1979
asS'Buck Henry'
p652
(lp653
I1976
aI1976
aI1976
aI1977
aI1977
aI1978
aI1978
aI1979
aI1979
aI1980
asS'Burt Reynolds'
p654
(lp655
I1980
asS'Susan Saint James'
p656
(lp657
I1981
aI1983
asS'Ruth Gordon'
p658
(lp659
I1977
asS'Rosanna Arquette'
p660
(lp661
I1986
asS'Steve Guttenberg'
p662
(lp663
I1986
asS'Jonny Moseley'
p664
(lp665
I2002
asS'Tom Arnold'
p666
(lp667
I1992
aI1996
asS'Amy Schumer'
p668
(lp669
I2015
asS'Jeff Bridges'
p670
(lp671
I2010
asS'Christina Aguilera'
p672
(lp673
I2004
asS'Mena Suvari'
p674
(lp675
I2001
asS'Corbin Bernsen'
p676
(lp677
I1990
asS'Ron Howard'
p678
(lp679
I1982
asS'Lily Tomlin'
p680
(lp681
I1975
aI1976
aI1983
asS'Eli Manning'
p682
(lp683
I2012
asS'Kirsten Dunst'
p684
(lp685
I2002
asS'Bill Paxton'
p686
(lp687
I1999
asS'Jason Lee'
p688
(lp689
I2005
asS'Susan Lucci'
p690
(lp691
I1990
asS'Ray Liotta'
p692
(lp693
I2003
asS'Christopher Reeve'
p694
(lp695
I1985
asS'Ben Affleck'
p696
(lp697
I2000
aI2004
aI2004
aI2008
aI2013
asS'Garth Brooks'
p698
(lp699
I1998
aI1999
asS'Salma Hayek'
p700
(lp701
I2003
asS'Julia Louis-Dreyfus'
p702
(lp703
I2006
aI2007
aI2016
asS'John McCain'
p704
(lp705
I2002
asS'Luke Perry'
p706
(lp707
I1993
asS'Sarah Michelle Gellar'
p708
(lp709
I1998
aI1999
aI2002
asS"Ed O'Neill"
p710
(lp711
I1990
asS'Charles Barkley'
p712
(lp713
I1993
aI2010
aI2012
asS'Louise Lasser'
p714
(lp715
I1976
asS'Gerard Butler'
p716
(lp717
I2009
asS'Michael Douglas'
p718
(lp719
I1984
asS'Father Guido Sarducci (Don Novello)'
p720
(lp721
I1984
asS'Dyan Cannon'
p722
(lp723
I1976
asS'The Rock (Dwayne Johnson)'
p724
(lp725
I2000
asS'Ray Charles'
p726
(lp727
I1977
asS'Jason Bateman'
p728
(lp729
I2005
asS'George Clooney'
p730
(lp731
I1995
asS'Macaulay Culkin'
p732
(lp733
I1991
asS'Annette Bening'
p734
(lp735
I2006
asS'Norm Macdonald'
p736
(lp737
I1999
asS'Anna Faris'
p738
(lp739
I2008
aI2011
asS'Anthony Edwards'
p740
(lp741
I1995
asS'Peter Dinklage'
p742
(lp743
I2016
asS'Griffin Dunne'
p744
(lp745
I1986
asS'Miskel Spillman'
p746
(lp747
I1977
asS'John Goodman'
p748
(lp749
I1989
aI1990
aI1992
aI1993
aI1994
aI1995
aI1996
aI1997
aI1998
aI1999
aI2000
aI2001
aI2013
asS'Linda Hamilton'
p750
(lp751
I1991
asS'Seth MacFarlane'
p752
(lp753
I2012
asS'David Spade'
p754
(lp755
I1998
aI2005
asS'Billy Bob Thornton'
p756
(lp757
I2001
asS'Patrick Stewart'
p758
(lp759
I1994
asS'Jason Alexander'
p760
(lp761
I1993
asS'Karen Black'
p762
(lp763
I1976
aI1981
asS'Megan Mullally'
p764
(lp765
I2004
asS'Cameron Diaz'
p766
(lp767
I1998
aI2002
aI2005
aI2014
asS'Oprah Winfrey'
p768
(lp769
I1986
asS'Sally Field'
p770
(lp771
I1993
asS'John Turturro'
p772
(lp773
I1994
asS'Roseanne Arnold\nTom Arnold'
p774
(lp775
I1992
asS'Roseanne'
p776
(lp777
I1994
asS'Kristen Wiig'
p778
(lp779
I2013
asS'Gabourey Sidibe'
p780
(lp781
I2010
asS'Richard Benjamin\nPaula Prentiss'
p782
(lp783
I1980
asS'Jackie Chan'
p784
(lp785
I2000
asS'Sharon Stone'
p786
(lp787
I1992
asS'Sid Caesar'
p788
(lp789
I1983
asS'Miley Cyrus'
p790
(lp791
I2011
aI2013
aI2015
asS'Broderick Crawford'
p792
(lp793
I1977
asS'Blythe Danner'
p794
(lp795
I1982
asS'Sean Hayes'
p796
(lp797
I2001
asS'Fred Savage'
p798
(lp799
I1990
asS'Steven Seagal'
p800
(lp801
I1991
asS'Ted Danson'
p802
(lp803
I1989
asS'Christina Applegate'
p804
(lp805
I1993
aI2012
asS'Jimmy Smits'
p806
(lp807
I1990
asS'Katie Holmes'
p808
(lp809
I2001
asS'Amy Adams'
p810
(lp811
I2008
aI2014
asS'Sally Kellerman'
p812
(lp813
I1981
asS'Shia LaBeouf'
p814
(lp815
I2007
aI2008
asS'Roseanne Barr'
p816
(lp817
I1991
asS'Charlene Tilton'
p818
(lp819
I1981
asS'Rob Lowe'
p820
(lp821
I1990
aI1997
aI2000
asS'Tracy Morgan'
p822
(lp823
I2009
aI2015
asS'Jude Law'
p824
(lp825
I2004
aI2010
asS'Judge Reinhold'
p826
(lp827
I1988
asS'John Malkovich'
p828
(lp829
I1989
aI1993
aI2008
asS'Betty White'
p830
(lp831
I2010
asS'Scott Wolf'
p832
(lp833
I1998
asS'J. K. Simmons'
p834
(lp835
I2015
asS'Madeline Kahn'
p836
(lp837
I1976
aI1977
aI1995
asS'Cuba Gooding, Jr.'
p838
(lp839
I1999
asS'Peter Sarsgaard'
p840
(lp841
I2006
asS'Neil Patrick Harris'
p842
(lp843
I2009
asS'Bernie Mac'
p844
(lp845
I2003
asS'Hilary Swank'
p846
(lp847
I2005
asS'Freddie Prinze, Jr.'
p848
(lp849
I2000
asS'Bernadette Peters'
p850
(lp851
I1981
asS'Kevin Hart'
p852
(lp853
I2013
aI2015
asS'Dudley Moore'
p854
(lp855
I1986
asS'Carrie Fisher'
p856
(lp857
I1978
asS'Steve Forbes'
p858
(lp859
I1996
asS'Jack Black'
p860
(lp861
I2002
aI2003
aI2005
asS'Drake'
p862
(lp863
I2014
aI2016
asS'Sarah Jessica Parker'
p864
(lp865
I1994
asS'Chevy Chase, Steve Martin, Martin Short'
p866
(lp867
I1986
asS'John Larroquette'
p868
(lp869
I1987
aI1988
asS'Zach Braff'
p870
(lp871
I2007
asS'Eric McCormack'
p872
(lp873
I2002
asS'Rainn Wilson'
p874
(lp875
I2007
asS'Elliott Gould'
p876
(lp877
I1976
aI1976
aI1977
aI1978
aI1980
aI1980
asS'Al Gore'
p878
(lp879
I2002
asS'Matthew Perry'
p880
(lp881
I1997
asS'Taraji P. Henson'
p882
(lp883
I2015
asS'The Rolling Stones'
p884
(lp885
I1978
asS'Mary Tyler Moore'
p886
(lp887
I1989
asS'George Kennedy'
p888
(lp889
I1981
asS'Edward Norton'
p890
(lp891
I2013
asS'Danny DeVito'
p892
(lp893
I1982
aI1987
aI1988
aI1993
aI1999
asS'Tim Robbins'
p894
(lp895
I1992
asS'Emilio Estevez'
p896
(lp897
I1994
asS'Matt Dillon'
p898
(lp899
I2006
asS'Nicolas Cage'
p900
(lp901
I1992
asS'Tony Danza'
p902
(lp903
I1986
aI1989
asS'Jamie Lee Curtis'
p904
(lp905
I1980
aI1984
asS'James Coburn'
p906
(lp907
I1982
asS'Martin Sheen'
p908
(lp909
I1979
asS'Bruce Willis'
p910
(lp911
I1989
aI2013
asS'Jessica Simpson & Nick Lachey'
p912
(lp913
I2004
asS'David Alan Grier'
p914
(lp915
I1995
aI1997
asS'Jon Lovitz'
p916
(lp917
I1997
asS'Valerie Bertinelli'
p918
(lp919
I1987
asS'Jesse Jackson'
p920
(lp921
I1984
asS'Fred Armisen'
p922
(lp923
I2016
asS'Scarlett Johansson'
p924
(lp925
I2006
aI2007
aI2010
aI2015
asS'Lisa Kudrow'
p926
(lp927
I1996
asS'Malcolm McDowell'
p928
(lp929
I1980
asS'Jeremy Renner'
p930
(lp931
I2012
asS'Jerry Lewis'
p932
(lp933
I1983
asS'Shannen Doherty'
p934
(lp935
I1993
asS'Deborah Harry'
p936
(lp937
I1981
asS'Louis Gossett, Jr.'
p938
(lp939
I1982
asS'Rosario Dawson'
p940
(lp941
I2009
asS'Donald Trump'
p942
(lp943
I2004
aI2015
asS'Robert Culp'
p944
(lp945
I1982
asS'Kerry Washington'
p946
(lp947
I2013
asS'Martin Lawrence'
p948
(lp949
I1994
asS'John C. Reilly'
p950
(lp951
I2006
asS'Lady Gaga'
p952
(lp953
I2013
asS'Chris Pratt'
p954
(lp955
I2014
asS'Nathan Lane'
p956
(lp957
I1997
asS'Bob Saget'
p958
(lp959
I1995
asS'Tim Curry'
p960
(lp961
I1981
asS'Zac Efron'
p962
(lp963
I2009
asS'Alan Cumming'
p964
(lp965
I2000
asS'Glenn Close'
p966
(lp967
I1989
aI1992
asS'Hugh Laurie'
p968
(lp969
I2006
aI2008
asS'Emily Blunt[113]'
p970
(lp971
I2016
asS'David Duchovny'
p972
(lp973
I1995
aI1998
asS'Russell Brand'
p974
(lp975
I2011
asS'Michael Phelps'
p976
(lp977
I2008
asS'Robert Guillaume'
p978
(lp979
I1983
asS'Paul Simon'
p980
(lp981
I1975
aI1976
aI1987
asS'Ed Begley, Jr.'
p982
(lp983
I1984
asS'Tom Green'
p984
(lp985
I2000
asS'Sylvester Stallone'
p986
(lp987
I1997
asS'Sara Gilbert'
p988
(lp989
I1994
asS'Raquel Welch'
p990
(lp991
I1976
asS'Rob Reiner'
p992
(lp993
I1975
asS'Claire Danes'
p994
(lp995
I1997
asS'Jesse Eisenberg'
p996
(lp997
I2011
asS'Joseph Gordon-Levitt'
p998
(lp999
I2009
aI2012
asS'Geena Davis'
p1000
(lp1001
I1989
asS'Kevin Bacon'
p1002
(lp1003
I1991
asS'Christopher Lee'
p1004
(lp1005
I1978
asS'Daniel Radcliffe'
p1006
(lp1007
I2012
asS'Rodney Dangerfield'
p1008
(lp1009
I1980
asS'Megan Fox'
p1010
(lp1011
I2009
asS'Christoph Waltz'
p1012
(lp1013
I2013
asS'O. J. Simpson'
p1014
(lp1015
I1978
asS'George Foreman'
p1016
(lp1017
I1994
asS'Anjelica Huston\nBilly Martin'
p1018
(lp1019
I1986
asS'Robert Conrad'
p1020
(lp1021
I1982
asS'Jon Hamm'
p1022
(lp1023
I2008
aI2010
aI2010
asS'Stevie Wonder'
p1024
(lp1025
I1983
asS'Andy Samberg'
p1026
(lp1027
I2014
asS'Bill Pullman'
p1028
(lp1029
I1996
asS'Jon Bon Jovi'
p1030
(lp1031
I2007
asS'Colin Firth'
p1032
(lp1033
I2004
asS'Bob Uecker'
p1034
(lp1035
I1984
asS'Jon Heder'
p1036
(lp1037
I2005
asS'Marisa Tomei'
p1038
(lp1039
I1994
asS'Jamie Foxx'
p1040
(lp1041
I2000
aI2012
asS'Olivia Newton-John'
p1042
(lp1043
I1982
asS'Dennis Quaid'
p1044
(lp1045
I1990
asS'The Smothers Brothers'
p1046
(lp1047
I1982
aI1983
asS'Willie Nelson'
p1048
(lp1049
I1987
asS'Kevin Spacey'
p1050
(lp1051
I1997
aI2006
asS'Amy Poehler'
p1052
(lp1053
I2010
asS'Art Garfunkel'
p1054
(lp1055
I1978
asS'Christine Baranski'
p1056
(lp1057
I1996
asS'Jennifer Lawrence'
p1058
(lp1059
I2013
asS'Ashton Kutcher'
p1060
(lp1061
I2003
aI2005
aI2008
aI2010
asS'Pamela Sue Martin'
p1062
(lp1063
I1985
asS'Howard Hesseman'
p1064
(lp1065
I1979
aI1982
aI1983
asS'Taylor Lautner'
p1066
(lp1067
I2009
asS'Lucy Liu'
p1068
(lp1069
I2000
asS'Jason Patric'
p1070
(lp1071
I1994
asS'Bruno Mars'
p1072
(lp1073
I2012
asS'Reese Witherspoon'
p1074
(lp1075
I2001
aI2015
asS'Blake Shelton'
p1076
(lp1077
I2015
asS'Justin Bieber'
p1078
(lp1079
I2013
asS'Zooey Deschanel'
p1080
(lp1081
I2012
asS'Dana Carvey'
p1082
(lp1083
I1994
aI1996
aI2000
aI2011
asS'Ellen Page'
p1084
(lp1085
I2008
asS'Vince Vaughn'
p1086
(lp1087
I1998
aI2013
asS'Jeff Goldblum'
p1088
(lp1089
I1993
aI1997
asS'Billy Crystal'
p1090
(lp1091
I1984
asS'Dan Aykroyd'
p1092
(lp1093
I2003
asS'Joan Rivers'
p1094
(lp1095
I1983
asS'Alec Baldwin and Kim Basinger'
p1096
(lp1097
I1994
asS'Daniel Craig'
p1098
(lp1099
I2012
asS'Charles Grodin'
p1100
(lp1101
I1977
asS'Helen Hunt'
p1102
(lp1103
I1994
aI1997
asS'Paul Reubens as Pee-wee Herman'
p1104
(lp1105
I1985
asS'Robert De Niro'
p1106
(lp1107
I2002
aI2004
aI2010
asS'George Carlin'
p1108
(lp1109
I1975
aI1984
asS'Heather Locklear'
p1110
(lp1111
I1994
asS'Julianna Margulies'
p1112
(lp1113
I2000
asS'Seth Rogen'
p1114
(lp1115
I2007
aI2009
aI2014
as.